(lp0
(lp1
(lp2
F0.10058251347375607
aF0.09736904357229303
aa(lp3
F0.1065512939875007
aF0.07398054426087902
aa(lp4
F0.10604392881497876
aF0.07508034212853407
aa(lp5
F0.09309212052072278
aF0.060074845527710766
aa(lp6
F0.10419609778422377
aF0.08638738916827457
aa(lp7
F0.10194455646913836
aF0.08812362464256497
aa(lp8
F0.08413775072847951
aF0.06459720127327727
aa(lp9
F0.06656008158843325
aF0.06347613113741352
aa(lp10
F0.06562770583477763
aF0.08638362487346052
aa(lp11
F0.06390172621698843
aF0.09723748116668166
aa(lp12
F0.05367007743925796
aF0.09253461205745228
aa(lp13
F0.04591063807768088
aF0.1039370131104327
aa(lp14
F0.020116930543041745
aF0.0892375163270187
aa(lp15
F0.019749880994910155
aF0.09491607933051076
aa(lp16
F0.02064004368842066
aF0.10728945052149981
aa(lp17
F0.008288865691508005
aF0.0944484695088574
aa(lp18
F0.018213316982468353
aF0.09029994599630387
aa(lp19
F0.016724266210922333
aF0.10478465462941183
aa(lp20
F0.004103081651628898
aF0.10899525979838728
aa(lp21
F0.007617516278615028
aF0.11144917921030999
aa(lp22
F0.00026182644925319166
aF0.1243583708116153
aa(lp23
F0.007882766781519331
aF0.11235405451901181
aa(lp24
F0.01042704321046417
aF0.12084740169275869
aa(lp25
F0.01566811386910199
aF0.14601356408222885
aa(lp26
F0.01528824000066196
aF0.1595408086090788
aa(lp27
F0.031132308640722445
aF0.1797084693788702
aa(lp28
F0.028039835660369612
aF0.18966336723523383
aa(lp29
F0.015665982113760645
aF0.19451831374808184
aa(lp30
F0.02000205278977161
aF0.2083235983081867
aa(lp31
F0.02244044603622434
aF0.22707828509848244
aa(lp32
F0.027162382723834252
aF0.2146831877713804
aa(lp33
F0.01975421345759253
aF0.2244189649041829
aa(lp34
F0.013434194925637143
aF0.25237158315469316
aa(lp35
F0.05038166048165582
aF0.2603891797183059
aa(lp36
F0.05130608610242088
aF0.27174274865015285
aa(lp37
F0.05517736782621584
aF0.275780619823852
aa(lp38
F0.014632223270123368
aF0.25481085939922676
aa(lp39
F0.016999785093203455
aF0.2573313763036762
aa(lp40
F0.029730777808742996
aF0.262957047626308
aa(lp41
F0.024463891566200886
aF0.27636087199025533
aa(lp42
F0.015583887032047836
aF0.30146452154884534
aa(lp43
F0.02599191463040581
aF0.32836952242588674
aa(lp44
F0.01412463043545
aF0.3316586308174121
aa(lp45
F0.004962789022161098
aF0.3843611852299256
aa(lp46
F0.011560766345382733
aF0.39323499921312005
aa(lp47
F0.00114659017310317
aF0.3862619356178742
aa(lp48
F0.0006235591718739002
aF0.35976848682392254
aa(lp49
F0.003371292930179785
aF0.34712646351555204
aa(lp50
F0.0015918035325576808
aF0.348858532850748
aa(lp51
F0.0018479755325134014
aF0.35094158489892996
aa(lp52
F0.0035894322778001328
aF0.32917055660333683
aa(lp53
F0.028794689591361784
aF0.30612141429677825
aa(lp54
F0.02318144758419168
aF0.32001778189660474
aa(lp55
F0.05869963370007619
aF0.30433023779434326
aa(lp56
F0.02565284964822142
aF0.31963620019661443
aa(lp57
F0.04997623626964337
aF0.3097785279455561
aa(lp58
F0.035181683914597334
aF0.299535245624334
aa(lp59
F0.005445279671857241
aF0.3055207234523136
aa(lp60
F0.009141166134414411
aF0.3017553683701635
aa(lp61
F0.056172518430015625
aF0.2997755407448533
aa(lp62
F0.08048362927766019
aF0.30110094166523327
aa(lp63
F0.05325819018202788
aF0.28787314974941375
aa(lp64
F0.062297093960394304
aF0.29315190700434646
aa(lp65
F0.06819333338009077
aF0.3008058130144739
aa(lp66
F0.03320543682460063
aF0.32013844460532714
aa(lp67
F0.0390644273000777
aF0.31719173833603087
aa(lp68
F0.025064645347808313
aF0.349456976356356
aa(lp69
F0.06282068852397833
aF0.3867810529049736
aa(lp70
F0.0436052718171885
aF0.4016656459130451
aa(lp71
F0.05780584485141164
aF0.43870379370807877
aa(lp72
F0.06176855381142659
aF0.43254073514274144
aa(lp73
F0.09962073498414797
aF0.4510598996914766
aa(lp74
F0.09861175748749951
aF0.4633204620587454
aa(lp75
F0.11100279061260579
aF0.48999608236166153
aa(lp76
F0.10440430604601633
aF0.47753100672071147
aa(lp77
F0.10654441122028172
aF0.471167999842319
aa(lp78
F0.11739520226448377
aF0.47429667946102066
aa(lp79
F0.1440293311566613
aF0.5136256834085255
aa(lp80
F0.14977715504920444
aF0.5185789992453048
aa(lp81
F0.11906333074141334
aF0.5566832500350367
aa(lp82
F0.12388092380574259
aF0.5697287506865475
aa(lp83
F0.10629598931570236
aF0.5411147688398261
aa(lp84
F0.09019377270091472
aF0.5189648270343569
aa(lp85
F0.12209894112846485
aF0.5022775837309248
aa(lp86
F0.10038905668926673
aF0.5053906235671872
aa(lp87
F0.09607371811054466
aF0.49968158980414484
aa(lp88
F0.09474989375104273
aF0.4843762719822028
aa(lp89
F0.09586843373797391
aF0.5041941243115698
aa(lp90
F0.058362233525325186
aF0.49343315098966634
aa(lp91
F0.059441111548422416
aF0.45755394281104134
aa(lp92
F0.0630325928613892
aF0.4538144155102124
aa(lp93
F0.0630960820210722
aF0.45262094435500944
aa(lp94
F0.06807627194246385
aF0.4673978190231428
aa(lp95
F0.07239990895853109
aF0.42230983873262745
aa(lp96
F0.07502614485097511
aF0.39667810965605504
aa(lp97
F0.0663485077779833
aF0.41613055845676733
aa(lp98
F0.0762637890820677
aF0.4348501556960532
aa(lp99
F0.08513105616039628
aF0.42604343190097876
aa(lp100
F0.10476983767048566
aF0.4215995621893627
aa(lp101
F0.11324839480607611
aF0.4268803377473155
aa(lp102
F0.10972561079677519
aF0.43215835386011964
aa(lp103
F0.08299562992097673
aF0.4098516883305008
aa(lp104
F0.07844068395989356
aF0.4167387581594556
aa(lp105
F0.07498412080690749
aF0.43509847988444983
aa(lp106
F0.05878527848882324
aF0.46969085006023226
aa(lp107
F0.06580579598637547
aF0.4975049119841791
aa(lp108
F0.05649635900871632
aF0.45083705978480004
aa(lp109
F0.04985378506216236
aF0.47119404305044044
aa(lp110
F0.06545051896055125
aF0.4463971916753202
aa(lp111
F0.060759696540027885
aF0.47045675125255093
aa(lp112
F0.044882880585981486
aF0.44828306276851726
aa(lp113
F0.057654613627529445
aF0.4448867923326251
aa(lp114
F0.10008186340210569
aF0.43740843782553734
aa(lp115
F0.09724706549030125
aF0.4106449667796999
aa(lp116
F0.07180499800662046
aF0.4068270899489762
aa(lp117
F0.06860116655867315
aF0.41527072715299623
aa(lp118
F0.0456602956744324
aF0.4319741336467389
aa(lp119
F0.07328010012303374
aF0.4060828221100162
aa(lp120
F0.06038354680371849
aF0.39388867264057803
aa(lp121
F0.05438316058717343
aF0.39219097371313544
aa(lp122
F0.08397082337306955
aF0.4007872567501082
aa(lp123
F0.07975276172555243
aF0.44166663125865024
aa(lp124
F0.07335791950634749
aF0.4048154168202218
aa(lp125
F0.09861872456501349
aF0.3945701340913222
aa(lp126
F0.09483146162126807
aF0.38886726049944753
aa(lp127
F0.1110573719586921
aF0.4023754290426225
aa(lp128
F0.09279532607754734
aF0.4110375067033072
aa(lp129
F0.1065079685259086
aF0.41482354938869465
aa(lp130
F0.11578751657042129
aF0.4462413681877821
aa(lp131
F0.11075277638361816
aF0.43898208107261
aa(lp132
F0.1358857057996821
aF0.43813505056650026
aa(lp133
F0.13641060039822006
aF0.4609620689481084
aa(lp134
F0.10946216509121669
aF0.4433975873694973
aa(lp135
F0.0933746290859242
aF0.4337311547569845
aa(lp136
F0.08782649293842919
aF0.43020134225555023
aa(lp137
F0.07923676902666266
aF0.425064857935231
aa(lp138
F0.061245739611641016
aF0.45475931459325203
aa(lp139
F0.07456080836674227
aF0.470454762027473
aa(lp140
F0.07155387745745001
aF0.48902630143879844
aa(lp141
F0.09032132104183802
aF0.4950335298128773
aa(lp142
F0.11695040420119146
aF0.509506062866271
aa(lp143
F0.13658391219554442
aF0.4826392814779019
aa(lp144
F0.0975967185625668
aF0.49467471917682254
aa(lp145
F0.08616253793242953
aF0.47301918373447177
aa(lp146
F0.11849025336279248
aF0.506241353816677
aa(lp147
F0.16045895878212557
aF0.5014792484120384
aa(lp148
F0.12079828483941332
aF0.4908572340812464
aa(lp149
F0.13380196871212638
aF0.4993483650155112
aa(lp150
F0.13716518998558103
aF0.4643289290977242
aa(lp151
F0.13814008752791695
aF0.46315385322163394
aa(lp152
F0.14234014108592838
aF0.45355802324622646
aa(lp153
F0.15806900573522836
aF0.4442724528551625
aa(lp154
F0.12164448070975967
aF0.44037903436767545
aa(lp155
F0.11283432337861485
aF0.42491835286411944
aa(lp156
F0.08245681762799323
aF0.4203668036394303
aa(lp157
F0.06383503944711855
aF0.4419337875826298
aa(lp158
F0.0756755434218982
aF0.46400216055102605
aa(lp159
F0.11193309143073041
aF0.48818338514938797
aa(lp160
F0.11750212994375815
aF0.4627941155905788
aa(lp161
F0.12127033702490897
aF0.4863975345243649
aa(lp162
F0.12303691572859825
aF0.4860319988060388
aa(lp163
F0.13085388557712055
aF0.4839554032518917
aa(lp164
F0.13354170982273905
aF0.4507444457325578
aa(lp165
F0.12403943547536685
aF0.4380354728564934
aa(lp166
F0.12117566447434523
aF0.4561842879081091
aa(lp167
F0.11481169954769045
aF0.4809084168790436
aa(lp168
F0.1288181483331723
aF0.5115672309599313
aa(lp169
F0.11869961580079941
aF0.5128459357783385
aa(lp170
F0.1271406702336253
aF0.48058750191907745
aa(lp171
F0.1566757524547848
aF0.47981117487759195
aa(lp172
F0.14967136604493544
aF0.4895621871536464
aa(lp173
F0.15937408343945147
aF0.480688420886434
aa(lp174
F0.172115721723287
aF0.49845252596141315
aa(lp175
F0.16896126856188246
aF0.48992656939860635
aa(lp176
F0.16290008364791042
aF0.48802198554134557
aa(lp177
F0.14742703008291624
aF0.4691902961168323
aa(lp178
F0.1459590658517837
aF0.4719569350851515
aa(lp179
F0.13828529193198374
aF0.5071076041577177
aa(lp180
F0.1774077285010685
aF0.5009852773292894
aa(lp181
F0.16616392223606954
aF0.49582690695895903
aa(lp182
F0.1288884653185611
aF0.4988256118517757
aa(lp183
F0.13681854205053057
aF0.5272566587808524
aa(lp184
F0.1071917619025608
aF0.5439366646046665
aa(lp185
F0.09538675146268438
aF0.5497439664256755
aa(lp186
F0.10994160299930632
aF0.5371317334001425
aa(lp187
F0.12610188596482674
aF0.5438267145302287
aa(lp188
F0.14986836352264976
aF0.5365740956512425
aa(lp189
F0.16529149468463686
aF0.5261926220899109
aa(lp190
F0.16160840044012498
aF0.506782357861567
aa(lp191
F0.1619406552396306
aF0.5215289001836393
aa(lp192
F0.173921616301498
aF0.5091850637029197
aa(lp193
F0.152371817516811
aF0.4768541129372672
aa(lp194
F0.14453325443822918
aF0.47727680799575156
aa(lp195
F0.12143512044153806
aF0.4473633923346553
aa(lp196
F0.10612735625483061
aF0.4760778219824702
aa(lp197
F0.09137574146169095
aF0.48802069527252356
aa(lp198
F0.10437068999818994
aF0.46073406699330127
aa(lp199
F0.10113404511564425
aF0.4938291618813063
aa(lp200
F0.10760266912479627
aF0.5188533598882384
aa(lp201
F0.1433433337796324
aF0.4967083428932144
aa(lp202
F0.11172242743855958
aF0.44666843768127085
aa(lp203
F0.12109196090864305
aF0.46590574569833815
aa(lp204
F0.10431047047088146
aF0.47782377235950196
aa(lp205
F0.10153139812529231
aF0.47967991536390114
aa(lp206
F0.11886388320821836
aF0.495308468315185
aa(lp207
F0.09596797352751367
aF0.48712329681342115
aa(lp208
F0.1019289064545721
aF0.4743238348573377
aa(lp209
F0.10510880691105715
aF0.4637072993283064
aa(lp210
F0.11202285931466051
aF0.45645301161751395
aa(lp211
F0.10800556876275469
aF0.45893337455925903
aa(lp212
F0.1172745081091782
aF0.4626114219619138
aa(lp213
F0.13792088863120036
aF0.46490159801180103
aa(lp214
F0.1059049478798123
aF0.4612667811499381
aa(lp215
F0.0969396871113604
aF0.4545164239061552
aa(lp216
F0.10979363375926689
aF0.44125038492968577
aa(lp217
F0.1314672451075935
aF0.4516757054021013
aa(lp218
F0.13776050329921471
aF0.44832597295391396
aa(lp219
F0.13564701071977026
aF0.4922981932774534
aa(lp220
F0.11642284486734306
aF0.4919052173253943
aa(lp221
F0.12314232919394745
aF0.47384803279869
aa(lp222
F0.14054791311504353
aF0.48400548776961105
aa(lp223
F0.15679785394900883
aF0.47996467708846374
aa(lp224
F0.15352069685158773
aF0.4599001050970178
aa(lp225
F0.13143737759650015
aF0.4481274977695369
aa(lp226
F0.11986339673906339
aF0.44001642747649294
aa(lp227
F0.10054967765947741
aF0.456528887054734
aa(lp228
F0.1033309675949929
aF0.47537025915635667
aa(lp229
F0.09993106220074417
aF0.4690479987188837
aa(lp230
F0.11122564248096402
aF0.4623299366918901
aa(lp231
F0.10728677269703152
aF0.4329314178059744
aa(lp232
F0.08705170732545468
aF0.4147849765808762
aa(lp233
F0.08771083308549522
aF0.421310687217685
aa(lp234
F0.08182843016922149
aF0.4175342039470633
aa(lp235
F0.0724153464802192
aF0.43372852507540444
aa(lp236
F0.03230272137570322
aF0.4509751326550012
aa(lp237
F0.049578972822330404
aF0.4351341930904382
aa(lp238
F0.053752740541708394
aF0.4561269360486855
aa(lp239
F0.08148369328198615
aF0.4514218558162313
aa(lp240
F0.08528051573522868
aF0.4772619272125539
aa(lp241
F0.10482437290898361
aF0.4641581997270534
aa(lp242
F0.10779382872513033
aF0.4327665594520374
aa(lp243
F0.09023512771578522
aF0.4099913126589004
aa(lp244
F0.09089192587890871
aF0.4234229796456982
aa(lp245
F0.08783179030255753
aF0.4293836389388973
aa(lp246
F0.09668230624290375
aF0.43933484739311185
aa(lp247
F0.1375066575265816
aF0.46471750219489827
aa(lp248
F0.12634288509055452
aF0.46646755307511983
aa(lp249
F0.14930096884297678
aF0.4743202247545394
aa(lp250
F0.14592309973797205
aF0.4779898580471179
aa(lp251
F0.14971642083326203
aF0.4930281041760411
aa(lp252
F0.16380439059388757
aF0.5169063256377229
aa(lp253
F0.1564521043884363
aF0.5207201669193625
aa(lp254
F0.11813288777029216
aF0.52899104398487
aa(lp255
F0.14771917069299487
aF0.5334396068167109
aa(lp256
F0.17091110804480525
aF0.5313207567795842
aa(lp257
F0.18607021602002766
aF0.5028223382976922
aa(lp258
F0.1835055611171986
aF0.5192885547339637
aa(lp259
F0.20908078943515324
aF0.5147572784963536
aa(lp260
F0.20990574121944833
aF0.5385072514444457
aa(lp261
F0.1897815199013104
aF0.53519852708753
aa(lp262
F0.20667068803536148
aF0.5542239129145241
aa(lp263
F0.19086459055578142
aF0.554354931109649
aa(lp264
F0.17220535387765662
aF0.5412620019459374
aa(lp265
F0.168397416202613
aF0.5558811529523388
aa(lp266
F0.13704314216388394
aF0.5568013788023898
aa(lp267
F0.13036122155285595
aF0.5447957057571254
aa(lp268
F0.13700631828989662
aF0.5523639328776677
aa(lp269
F0.12224451684332967
aF0.5474695125582624
aa(lp270
F0.09986032847160582
aF0.5310179367727648
aa(lp271
F0.09018909865403918
aF0.49956553680008076
aa(lp272
F0.08138966419649392
aF0.4815233705609669
aa(lp273
F0.06966703622784354
aF0.5016335267708089
aa(lp274
F0.08381377858913625
aF0.4624797640750695
aa(lp275
F0.09155449136797367
aF0.4989321018630625
aa(lp276
F0.08304056798215148
aF0.5028914670355911
aa(lp277
F0.1059990096344259
aF0.5270544388253514
aa(lp278
F0.13102281160972262
aF0.5151307676781992
aa(lp279
F0.11098785284038964
aF0.5065747426909278
aa(lp280
F0.1144859351321771
aF0.5095859174554599
aa(lp281
F0.1201395263360634
aF0.5041722408568495
aa(lp282
F0.09484612488065795
aF0.5042685378053968
aa(lp283
F0.10675350132233771
aF0.4912569282922507
aa(lp284
F0.1039581740027591
aF0.5049731753837216
aa(lp285
F0.12622944268970668
aF0.5076492586785174
aa(lp286
F0.10717773567159825
aF0.48578842427524055
aa(lp287
F0.10464985851914933
aF0.5213172859910105
aa(lp288
F0.13182751954251873
aF0.49360843651831066
aa(lp289
F0.14357308951436748
aF0.474999120477798
aa(lp290
F0.1360147150338623
aF0.49570124306012875
aa(lp291
F0.12293880897163564
aF0.48554624002659424
aa(lp292
F0.11309856728313726
aF0.49955384556207094
aa(lp293
F0.11113318939579317
aF0.5056976639394785
aa(lp294
F0.13371564642260347
aF0.48476560869679686
aa(lp295
F0.14302613608640397
aF0.49806577602143964
aa(lp296
F0.15255790309687178
aF0.5108240743763126
aa(lp297
F0.136318804747713
aF0.513238072651656
aa(lp298
F0.13164667121000334
aF0.48030810643731753
aa(lp299
F0.13744803030520258
aF0.4680662150234814
aa(lp300
F0.1124651532055586
aF0.4543206335273469
aa(lp301
F0.11941750655646058
aF0.46113370181124524
aa(lp302
F0.12399807768276318
aF0.4784214163600336
aa(lp303
F0.09834946541363546
aF0.4848103669728218
aa(lp304
F0.10021575478321218
aF0.48755381105927204
aa(lp305
F0.09266527290620524
aF0.48095768623683116
aa(lp306
F0.11659216615516724
aF0.4737282286283002
aa(lp307
F0.11860205003437888
aF0.4816657977063698
aa(lp308
F0.1295387877862903
aF0.47683507722850693
aa(lp309
F0.08332930598688203
aF0.48363781070157547
aa(lp310
F0.09642326277413969
aF0.5040638582612645
aa(lp311
F0.13808573688563291
aF0.5110180333361175
aa(lp312
F0.13548786024797319
aF0.5418193658470954
aa(lp313
F0.14681322283547096
aF0.5535975436032561
aa(lp314
F0.13202911537352266
aF0.5428358106000496
aa(lp315
F0.17349405628377135
aF0.5283639553569086
aa(lp316
F0.16099207157517995
aF0.5299245581230858
aa(lp317
F0.16337700042893694
aF0.5089368913451736
aa(lp318
F0.18258199805574374
aF0.4861185362666417
aa(lp319
F0.19114300777077955
aF0.48626235268192336
aa(lp320
F0.18183018305970292
aF0.514169830864914
aa(lp321
F0.16749605679439905
aF0.5257251233971796
aa(lp322
F0.17048722939700114
aF0.5344065901731261
aa(lp323
F0.15917753052925854
aF0.5338906812288947
aa(lp324
F0.1356304454495832
aF0.5352910221488991
aa(lp325
F0.13215460541556479
aF0.5430211855354985
aa(lp326
F0.13637563072182016
aF0.534050364466619
aa(lp327
F0.10974529648625907
aF0.5235615786936215
aa(lp328
F0.10183369380463683
aF0.5266561969050267
aa(lp329
F0.09821714381144042
aF0.5120978660424758
aa(lp330
F0.1180807284039926
aF0.5119734964385844
aa(lp331
F0.12972764626259015
aF0.5259492689525446
aa(lp332
F0.15483794689470726
aF0.5342879403887654
aa(lp333
F0.1508556226301877
aF0.535399111128912
aa(lp334
F0.13642319875540665
aF0.5388243439957765
aa(lp335
F0.14368817917949822
aF0.5385598303822254
aa(lp336
F0.14618003442094848
aF0.48098229630935707
aa(lp337
F0.14306959447779272
aF0.4850708162531233
aa(lp338
F0.10514728798878988
aF0.45962672606972765
aa(lp339
F0.10125765884332533
aF0.4739468967044616
aa(lp340
F0.0807572939428749
aF0.46800985484482016
aa(lp341
F0.08914872114763187
aF0.4452166968071342
aa(lp342
F0.10415859189435007
aF0.45786906124271937
aa(lp343
F0.08443693343281869
aF0.43150107365933504
aa(lp344
F0.07795365901866891
aF0.42624509857523313
aa(lp345
F0.0588275384703352
aF0.4169531191572809
aa(lp346
F0.06532485224797423
aF0.430172084570918
aa(lp347
F0.08199595220757577
aF0.4172393068652875
aa(lp348
F0.10893717183025854
aF0.39129652937758425
aa(lp349
F0.07956037835592253
aF0.3685081519817366
aa(lp350
F0.1047628977018707
aF0.3625872249574729
aa(lp351
F0.12639733381734267
aF0.3836892509703185
aa(lp352
F0.15036124674315612
aF0.43153865215653103
aa(lp353
F0.17162985941093864
aF0.4480773463367235
aa(lp354
F0.196952254908065
aF0.4824109392186139
aa(lp355
F0.20258175146472815
aF0.4959453851304472
aa(lp356
F0.2053130078673069
aF0.499918174253388
aa(lp357
F0.2001301293316288
aF0.5181499669845053
aa(lp358
F0.19259062416424194
aF0.5409060830882508
aa(lp359
F0.1619418643414183
aF0.5177269113632527
aa(lp360
F0.14150117158957268
aF0.512693122933662
aa(lp361
F0.1605469138066525
aF0.5421957898516476
aa(lp362
F0.1528151728574262
aF0.5398267091541101
aa(lp363
F0.16797751508775943
aF0.5616288433363273
aa(lp364
F0.15742055329838145
aF0.5674462084959828
aa(lp365
F0.160261758312769
aF0.5385476882912578
aa(lp366
F0.15214755310426686
aF0.534583004274749
aa(lp367
F0.1350057414585631
aF0.5707263675763377
aa(lp368
F0.17317520649772356
aF0.553128458527445
aa(lp369
F0.19270080083422814
aF0.5684985648783566
aa(lp370
F0.1951313097860161
aF0.5867466393034376
aa(lp371
F0.22309920618108764
aF0.5975757729778418
aa(lp372
F0.22152244074430993
aF0.5853579089351495
aa(lp373
F0.20751680799472333
aF0.5854432082241579
aa(lp374
F0.2015488614531316
aF0.5544077534459904
aa(lp375
F0.2154657345169952
aF0.546338060128129
aa(lp376
F0.2048430553387286
aF0.557799603603466
aa(lp377
F0.19117089577459614
aF0.5703186149887687
aa(lp378
F0.23454010912794115
aF0.5738069811044053
aa(lp379
F0.21308950588476636
aF0.5870710199274486
aa(lp380
F0.21883750000693658
aF0.5972710263381772
aa(lp381
F0.24954358059515477
aF0.6121097044992534
aa(lp382
F0.26453157020683904
aF0.6201864767392213
aa(lp383
F0.2668686490613724
aF0.6138371022360365
aa(lp384
F0.2722914386379182
aF0.6188717755914659
aa(lp385
F0.2587979436829432
aF0.6328643282734312
aa(lp386
F0.23655496641299617
aF0.6155380758303187
aa(lp387
F0.2357626241403503
aF0.6015265767049451
aa(lp388
F0.23822130460575733
aF0.6127592014647802
aa(lp389
F0.21183527347872125
aF0.5927765242918938
aa(lp390
F0.2065924752829284
aF0.6033115171166924
aa(lp391
F0.19193567812462148
aF0.6253764018298225
aa(lp392
F0.21404510779949343
aF0.6253879240624899
aa(lp393
F0.22972407295473946
aF0.6176978002876835
aa(lp394
F0.2274745674817057
aF0.6182486993935427
aa(lp395
F0.2471470769809267
aF0.6059246519282608
aa(lp396
F0.2365959664152651
aF0.6284910867890047
aa(lp397
F0.20933267245150544
aF0.6571100649582107
aa(lp398
F0.20553142906276528
aF0.6829317155679915
aa(lp399
F0.23404959114066787
aF0.6735699478939853
aa(lp400
F0.19932697491374393
aF0.640344460914764
aa(lp401
F0.19641287826746753
aF0.6348494650453446
aa(lp402
F0.22164911156951622
aF0.6468053165949896
aa(lp403
F0.23148836931420455
aF0.6393779072015605
aa(lp404
F0.2403711139691962
aF0.6473324359579484
aa(lp405
F0.23085010712665632
aF0.6219593973220532
aa(lp406
F0.2482635807222046
aF0.6319292091063677
aa(lp407
F0.24578949069323122
aF0.6532298795613722
aa(lp408
F0.21681712311398524
aF0.6681302812692218
aa(lp409
F0.21250589180202603
aF0.6782592734943121
aa(lp410
F0.19688900476560636
aF0.6937849636778901
aa(lp411
F0.20012848164010683
aF0.705894027538871
aa(lp412
F0.2111972872597243
aF0.7197828526353419
aa(lp413
F0.20479039081439365
aF0.7201965091086927
aa(lp414
F0.2306656955873984
aF0.7138149188237417
aa(lp415
F0.19978592036679246
aF0.7336940696357264
aa(lp416
F0.24794277705236695
aF0.7638784963525558
aa(lp417
F0.29723012210867944
aF0.7621786736902557
aa(lp418
F0.3312604805041725
aF0.7379002379346311
aa(lp419
F0.33419373842784456
aF0.7178798943479515
aa(lp420
F0.34024526913868525
aF0.7675954628280761
aa(lp421
F0.33005421678305963
aF0.7688326453197678
aa(lp422
F0.30617518770777713
aF0.7754705745839692
aa(lp423
F0.30143083231126877
aF0.7835229918279031
aa(lp424
F0.3386522624745644
aF0.8009014551521572
aa(lp425
F0.32868228857632015
aF0.7864639012113489
aa(lp426
F0.32716876237847076
aF0.7697100164790335
aa(lp427
F0.31690569250342016
aF0.7775346359265085
aa(lp428
F0.322328435716845
aF0.7816496249204733
aa(lp429
F0.29253089867267845
aF0.8030085582659393
aa(lp430
F0.31397139133467894
aF0.7845442856607839
aa(lp431
F0.35042859038837215
aF0.791741406124724
aa(lp432
F0.32958943417823183
aF0.8055030696955751
aa(lp433
F0.3719566886486399
aF0.8018935191373425
aa(lp434
F0.3566670769370422
aF0.7711904287231676
aa(lp435
F0.3538553339036698
aF0.7816549114463488
aa(lp436
F0.3631703182412024
aF0.7620652894928498
aa(lp437
F0.35457594377854507
aF0.7776745964287185
aa(lp438
F0.35016267194364387
aF0.7897817669119174
aa(lp439
F0.3550229733551586
aF0.7909408551511344
aa(lp440
F0.36522616429999727
aF0.8067988486445594
aa(lp441
F0.3913542175338689
aF0.8237273663357848
aa(lp442
F0.3938072458013747
aF0.8306565411384483
aa(lp443
F0.4004951434425263
aF0.8069397142687399
aa(lp444
F0.38383370163921066
aF0.8316364548842184
aa(lp445
F0.37636383847720695
aF0.8109864565654088
aa(lp446
F0.3723222996641111
aF0.7891220422787585
aa(lp447
F0.3486073160105746
aF0.7798288902146655
aa(lp448
F0.31766829862179136
aF0.7317385089220654
aa(lp449
F0.2947896288248139
aF0.7310669268149018
aa(lp450
F0.2725055879243249
aF0.7055564692537095
aa(lp451
F0.24253256732407918
aF0.6939080372533124
aa(lp452
F0.2285237504267143
aF0.6637709434591312
aa(lp453
F0.2149612821499888
aF0.664217656590407
aa(lp454
F0.21751784884240952
aF0.6525475036289559
aa(lp455
F0.23884552183413213
aF0.6418187797766767
aa(lp456
F0.2620394118790133
aF0.6616251942979513
aa(lp457
F0.2463808952027653
aF0.65151358875448
aa(lp458
F0.20766890425266502
aF0.6577461911562731
aa(lp459
F0.1935814082569664
aF0.6743895549997532
aa(lp460
F0.18188852153680152
aF0.7082826985168558
aa(lp461
F0.19898150559835362
aF0.7315567947924192
aa(lp462
F0.20161521979038854
aF0.7348317710753324
aa(lp463
F0.2334639832596166
aF0.7006774769532009
aa(lp464
F0.2233641520340932
aF0.688411660335516
aa(lp465
F0.2341388304835589
aF0.6772751024462735
aa(lp466
F0.23530362296819604
aF0.6782573831908119
aa(lp467
F0.2490758405609979
aF0.7083923908505173
aa(lp468
F0.25748217419811326
aF0.6668549789273668
aa(lp469
F0.25852766859114656
aF0.6755389753526806
aa(lp470
F0.28077763568633435
aF0.6508491260075316
aa(lp471
F0.28659938260620854
aF0.6689252776021697
aa(lp472
F0.2907085138210591
aF0.6637769474175033
aa(lp473
F0.30228560562339984
aF0.7047604379211526
aa(lp474
F0.27246048365986586
aF0.7158292145069767
aa(lp475
F0.28696569910178193
aF0.7245531036838168
aa(lp476
F0.29259879717780013
aF0.7228143216193881
aa(lp477
F0.30537084231921385
aF0.719351586922425
aa(lp478
F0.27810672477414133
aF0.7135439546361669
aa(lp479
F0.28328957367325963
aF0.7171386127552201
aa(lp480
F0.3119122691340811
aF0.7287410827546099
aa(lp481
F0.29243993824072206
aF0.7535989633563533
aa(lp482
F0.26824809210550615
aF0.6919074974739154
aa(lp483
F0.2338440627609195
aF0.6662553423415081
aa(lp484
F0.2540657603705386
aF0.6677627860462414
aa(lp485
F0.25619077520619654
aF0.66723414198335
aa(lp486
F0.2626924197242875
aF0.6493145669840444
aa(lp487
F0.2626382628774222
aF0.6538713990726812
aa(lp488
F0.28564958163675885
aF0.6578182739446009
aa(lp489
F0.30291639079821836
aF0.6826750111616019
aa(lp490
F0.3098938201945082
aF0.6879683725344535
aa(lp491
F0.2985876639568866
aF0.7023453445993956
aa(lp492
F0.2924298210228259
aF0.6777364407000624
aa(lp493
F0.27544685199863095
aF0.6795740191998714
aa(lp494
F0.27935366603687106
aF0.700996655777604
aa(lp495
F0.26304823787874515
aF0.7300736847506138
aa(lp496
F0.24559199709672427
aF0.7075513496922028
aa(lp497
F0.28463408360093156
aF0.7571839324118894
aa(lp498
F0.30266647671945623
aF0.7449148082018727
aa(lp499
F0.29533562914548345
aF0.7717865005926369
aa(lp500
F0.27708211998812327
aF0.7237017109787562
aa(lp501
F0.2799901728147551
aF0.7023454347457531
aa(lp502
F0.2912652774779038
aF0.732550684954866
aa(lp503
F0.2777743976598217
aF0.7190576547249719
aa(lp504
F0.29344168139253757
aF0.7320290977117384
aa(lp505
F0.2674493973612974
aF0.7171235182728825
aa(lp506
F0.2765074132022812
aF0.7235586516033624
aa(lp507
F0.3080922353825147
aF0.7396470648590547
aa(lp508
F0.2972032076403446
aF0.742696083020164
aa(lp509
F0.27013453514677793
aF0.7479271192657282
aa(lp510
F0.2528772899264867
aF0.7363476837969832
aa(lp511
F0.2814679888695344
aF0.7402600092513714
aa(lp512
F0.2655219213445033
aF0.7436961879126908
aa(lp513
F0.2548129482166719
aF0.720979138726497
aa(lp514
F0.27692646380038294
aF0.73032694384771
aa(lp515
F0.29440388151346586
aF0.7223251672078955
aa(lp516
F0.30704134212615913
aF0.6737569411453804
aa(lp517
F0.3147296402864753
aF0.6836554927627204
aa(lp518
F0.3055623328102622
aF0.6820869523055071
aa(lp519
F0.28076949402801876
aF0.7156538690573582
aa(lp520
F0.28829434639797
aF0.7229812494458524
aa(lp521
F0.27251755561027347
aF0.762181084293419
aa(lp522
F0.30495889260735515
aF0.7625821297151713
aa(lp523
F0.3199688724358919
aF0.7608982338323396
aa(lp524
F0.2969627909921069
aF0.7758019070619218
aa(lp525
F0.2968090272665136
aF0.7796650018623232
aa(lp526
F0.30725325724018604
aF0.773336787707988
aa(lp527
F0.3166577777697514
aF0.7807625903911823
aa(lp528
F0.3310789078588889
aF0.7961958388148653
aa(lp529
F0.3190695549619994
aF0.7986973013064665
aa(lp530
F0.28593203918314736
aF0.7977043567864155
aa(lp531
F0.32382838036662687
aF0.7728293361813235
aa(lp532
F0.3330738176978022
aF0.7817586806782165
aa(lp533
F0.3322814798044074
aF0.7709556958642482
aa(lp534
F0.3055638433798352
aF0.7886944290368194
aa(lp535
F0.3182793845192952
aF0.7440443177463877
aa(lp536
F0.322124761008916
aF0.7809973201950744
aa(lp537
F0.32832120294652267
aF0.8229208454222398
aa(lp538
F0.31586503005767913
aF0.8234035571943026
aa(lp539
F0.3055287991331259
aF0.7935610213409626
aa(lp540
F0.290359016308614
aF0.7753423931395355
aa(lp541
F0.3000834242433111
aF0.7970312990739263
aa(lp542
F0.2971269409848758
aF0.7775441241732801
aa(lp543
F0.31997375970686204
aF0.7919393784854423
aa(lp544
F0.31131223956568155
aF0.7964061680165201
aa(lp545
F0.29242213484048357
aF0.8124666371593212
aa(lp546
F0.3148238789741603
aF0.7831459078534417
aa(lp547
F0.30585243256789635
aF0.7977721788116992
aa(lp548
F0.2860532972547331
aF0.811060254416222
aa(lp549
F0.2852011322788789
aF0.8059929107979605
aa(lp550
F0.2945365528097739
aF0.7701174998451268
aa(lp551
F0.2681610804496931
aF0.7835142365969023
aa(lp552
F0.30650231342170964
aF0.7446524696343267
aa(lp553
F0.27419380673281296
aF0.7406963064296982
aa(lp554
F0.26424008021689854
aF0.7355125453204671
aa(lp555
F0.30667021853769977
aF0.7439243414586042
aa(lp556
F0.278156641662636
aF0.7678753216974087
aa(lp557
F0.29527303884149514
aF0.774248333485838
aa(lp558
F0.2980385031022362
aF0.7706496144590973
aa(lp559
F0.3059649044564932
aF0.7977687016072776
aa(lp560
F0.3013543744163576
aF0.7918954503383743
aa(lp561
F0.2863600408735419
aF0.8223295005295421
aa(lp562
F0.3168728069401306
aF0.8401008392601953
aa(lp563
F0.3106425695176841
aF0.846545678917409
aa(lp564
F0.313231140873821
aF0.8466965807500453
aa(lp565
F0.33495995394122646
aF0.8554609346796792
aa(lp566
F0.3304709013545147
aF0.8329165345617189
aa(lp567
F0.35388895679295024
aF0.8253633228924891
aa(lp568
F0.3402360528260298
aF0.8262911699013011
aa(lp569
F0.33871702335849974
aF0.8138138217260171
aa(lp570
F0.3331708703116098
aF0.8270820916376661
aa(lp571
F0.3142987565114498
aF0.8518323685885427
aa(lp572
F0.31008792919730055
aF0.822874468984015
aa(lp573
F0.3101802542709958
aF0.7836711112453816
aa(lp574
F0.30507163835875417
aF0.7882053766790067
aa(lp575
F0.30557586793078173
aF0.7893240260471585
aa(lp576
F0.29694129259133006
aF0.7813431505274888
aa(lp577
F0.2945242371387225
aF0.7823569446194778
aa(lp578
F0.2773052389466285
aF0.7538744599712155
aa(lp579
F0.2885588001698808
aF0.7671063525745845
aa(lp580
F0.2911093661355551
aF0.7629436173510901
aa(lp581
F0.29207079449872664
aF0.758034069079573
aa(lp582
F0.3207548194732204
aF0.7752942682974207
aa(lp583
F0.2555767517884341
aF0.7597616388760586
aa(lp584
F0.31447394547815133
aF0.745418606050602
aa(lp585
F0.2970698244235763
aF0.7348475765204896
aa(lp586
F0.3338786526183218
aF0.7366732314429005
aa(lp587
F0.3285966256093891
aF0.7245546985551682
aa(lp588
F0.3273112319289611
aF0.7441191792143783
aa(lp589
F0.32309609669645983
aF0.7200627841536852
aa(lp590
F0.319865622851827
aF0.7269979117182491
aa(lp591
F0.2792860087975012
aF0.7229847728961659
aa(lp592
F0.27876943410941896
aF0.733705894052418
aa(lp593
F0.2591189712792344
aF0.7346691103232222
aa(lp594
F0.29214576961565447
aF0.7228449167505642
aa(lp595
F0.3030918412911416
aF0.7014637632909186
aa(lp596
F0.2864300972581206
aF0.691005348264195
aa(lp597
F0.28333148510527134
aF0.675120035113066
aa(lp598
F0.2911088395103503
aF0.6873893119393877
aa(lp599
F0.28498520498038815
aF0.6865594394011606
aa(lp600
F0.28152749841077906
aF0.6963473047901152
aa(lp601
F0.2775770628004018
aF0.6779716779342301
aa(lp602
F0.2709630357650546
aF0.6669435678206885
aa(lp603
F0.2856671214808455
aF0.662473044775016
aa(lp604
F0.28740283738941375
aF0.6632882635398044
aa(lp605
F0.26202266601382235
aF0.6449029450793928
aa(lp606
F0.22886331527545356
aF0.6202225970430817
aa(lp607
F0.22644192162677054
aF0.606289310258563
aa(lp608
F0.23086587908596934
aF0.6411423798118476
aa(lp609
F0.27233730310430887
aF0.6376215273486032
aa(lp610
F0.24076673730967574
aF0.6063816758858881
aa(lp611
F0.21788783009661059
aF0.6197330731607666
aa(lp612
F0.23381925647811255
aF0.6750052317171795
aa(lp613
F0.24288689169119065
aF0.6453227109974856
aa(lp614
F0.27165153915507073
aF0.6600093928733999
aa(lp615
F0.26568291437424074
aF0.6918761994751242
aa(lp616
F0.2883319842345145
aF0.6997951789445904
aa(lp617
F0.2846823522593698
aF0.6773310118709615
aa(lp618
F0.27652946566741027
aF0.7131356953482102
aa(lp619
F0.27964057752846727
aF0.7170635015865994
aa(lp620
F0.2643494150725729
aF0.7182762655441206
aa(lp621
F0.27791425047143903
aF0.6735057256401338
aa(lp622
F0.26243400350588325
aF0.6775754762729913
aa(lp623
F0.261540161158842
aF0.7129712062139991
aa(lp624
F0.2949314147303127
aF0.7129359523597502
aa(lp625
F0.2872784033665256
aF0.6798968001705229
aa(lp626
F0.27012839889560597
aF0.679450839319822
aa(lp627
F0.26800441333116903
aF0.6884066194391616
aa(lp628
F0.2480982834723658
aF0.7029520060775558
aa(lp629
F0.22563840537704233
aF0.6822312336144021
aa(lp630
F0.25596000314247397
aF0.6694284011414058
aa(lp631
F0.24655005452711415
aF0.6745640063956408
aa(lp632
F0.23741532748256083
aF0.6655248303579225
aa(lp633
F0.21425076780910685
aF0.6460850952897192
aa(lp634
F0.20046601550788615
aF0.6301482509058354
aa(lp635
F0.16668602134585275
aF0.60534123758672
aa(lp636
F0.1909086427359409
aF0.6235098339465722
aa(lp637
F0.21371041231892968
aF0.6484071103333731
aa(lp638
F0.22267712881631035
aF0.6199019700326045
aa(lp639
F0.2281813194599693
aF0.5938842487916856
aa(lp640
F0.2070388604944825
aF0.6097037418160911
aa(lp641
F0.23292969857802903
aF0.6304045361053495
aa(lp642
F0.22422265989033194
aF0.6551075137028752
aa(lp643
F0.250707263004579
aF0.6340775499132765
aa(lp644
F0.2486675988825775
aF0.6254698916109616
aa(lp645
F0.23120140219128738
aF0.6010088491842454
aa(lp646
F0.21983042849152393
aF0.6116614696831907
aa(lp647
F0.2120099301263979
aF0.6484596112156763
aa(lp648
F0.21094019387905244
aF0.6306329537861537
aa(lp649
F0.23565981062357655
aF0.6331240124525458
aa(lp650
F0.23594010138603536
aF0.6918637912192865
aa(lp651
F0.21439244454458067
aF0.6760356599971612
aa(lp652
F0.19878414432203462
aF0.657466845593403
aa(lp653
F0.18133054174015495
aF0.6784227188637751
aa(lp654
F0.19896472493387335
aF0.7143467936997339
aa(lp655
F0.21026355136217023
aF0.7312290981789025
aa(lp656
F0.22876026057676305
aF0.7351245100877856
aa(lp657
F0.24785535236448647
aF0.7305698582546531
aa(lp658
F0.2501089199911958
aF0.7332340445711988
aa(lp659
F0.20960962619583395
aF0.7214534867620677
aa(lp660
F0.2108831338473417
aF0.7096047270039326
aa(lp661
F0.21795085917983223
aF0.6942848560878762
aa(lp662
F0.24407866225906488
aF0.6842228592110783
aa(lp663
F0.2578669753718005
aF0.6729821673716887
aa(lp664
F0.26866449952443117
aF0.6728467200975192
aa(lp665
F0.29365472486971206
aF0.6553621948562351
aa(lp666
F0.29900044548208615
aF0.6898420442324746
aa(lp667
F0.2869510174239201
aF0.7132379604578567
aa(lp668
F0.2614893542449314
aF0.7100899968443015
aa(lp669
F0.26505778819919595
aF0.7333597897227071
aa(lp670
F0.25443157911252823
aF0.7302199920721604
aa(lp671
F0.2966992563621937
aF0.7363163371570126
aa(lp672
F0.2690891308923993
aF0.7498885139186725
aa(lp673
F0.27056800962135874
aF0.7235772861486977
aa(lp674
F0.2824121993385991
aF0.7244597502334181
aa(lp675
F0.2435459628859426
aF0.7177989139146027
aa(lp676
F0.2514455975571228
aF0.7229118355021062
aa(lp677
F0.23248916046119292
aF0.6999458891932816
aa(lp678
F0.2564655092319043
aF0.7307902993237458
aa(lp679
F0.28139538323046365
aF0.7373081911521696
aa(lp680
F0.27246274339521537
aF0.7331914616809517
aa(lp681
F0.2888398424029398
aF0.7332915171410725
aa(lp682
F0.275321295929319
aF0.7269550464817159
aa(lp683
F0.22850113350112516
aF0.7114327773901128
aa(lp684
F0.25097260661521475
aF0.7302604075830501
aa(lp685
F0.25806782877571044
aF0.7131733339068883
aa(lp686
F0.24152153114759983
aF0.7030163282531746
aa(lp687
F0.2546419389074842
aF0.6953033471873113
aa(lp688
F0.22737169942579544
aF0.6682932137943514
aa(lp689
F0.1955016691251053
aF0.674421942058537
aa(lp690
F0.20884217569031824
aF0.6727887122689784
aa(lp691
F0.1820799682571089
aF0.6510889324367191
aa(lp692
F0.1841969828894648
aF0.6450594263491674
aa(lp693
F0.2021961645720713
aF0.6232036763592441
aa(lp694
F0.21205678671427236
aF0.6185874728351117
aa(lp695
F0.21286977990708536
aF0.6466055625992045
aa(lp696
F0.23854134797091298
aF0.6321891121202957
aa(lp697
F0.1962904076084805
aF0.6444596203975034
aa(lp698
F0.14971383876319586
aF0.660399823898084
aa(lp699
F0.1548929846081288
aF0.6502733255210333
aa(lp700
F0.16717237690051925
aF0.6599911578600789
aa(lp701
F0.1699245505355468
aF0.6723464041060303
aa(lp702
F0.1555271956137561
aF0.6745993009294898
aa(lp703
F0.15500196945509068
aF0.6766071507283667
aa(lp704
F0.15371001094016434
aF0.6627118618019807
aa(lp705
F0.15441524122984554
aF0.6608836328641986
aa(lp706
F0.15817621630650291
aF0.6490747057249239
aa(lp707
F0.2028124582770138
aF0.6761974838915278
aa(lp708
F0.22059459307481014
aF0.6611005461901034
aa(lp709
F0.23504424879408656
aF0.6684326508516116
aa(lp710
F0.24689009733811268
aF0.6508835126727753
aa(lp711
F0.2238225269541038
aF0.6467101323848408
aa(lp712
F0.23366119014321368
aF0.6747241551181709
aa(lp713
F0.25294014814907784
aF0.6814807935376513
aa(lp714
F0.27172146709762185
aF0.6774155139942375
aa(lp715
F0.24378749124365875
aF0.6840037763600466
aa(lp716
F0.2316573782985556
aF0.6736175429442538
aa(lp717
F0.21782350779843354
aF0.673770883553909
aa(lp718
F0.18078419261742504
aF0.6495576883449777
aa(lp719
F0.17536792129874126
aF0.6543095964984426
aa(lp720
F0.17741094751502298
aF0.6506200899073966
aa(lp721
F0.19289941342006098
aF0.6411334574125283
aa(lp722
F0.19777410763700232
aF0.6615914348877694
aa(lp723
F0.19889985997425574
aF0.6735900928978028
aa(lp724
F0.22887122863584444
aF0.6716634283541638
aa(lp725
F0.2449238402327701
aF0.6626979642271141
aa(lp726
F0.2595859430053604
aF0.6880465298847126
aa(lp727
F0.24271823188870012
aF0.7059200526707677
aa(lp728
F0.22987548858474954
aF0.6795779400322509
aa(lp729
F0.26320155521601984
aF0.6721667693296137
aa(lp730
F0.24619463191998403
aF0.6887263463252321
aa(lp731
F0.24072887874603852
aF0.6807452133141875
aa(lp732
F0.2409802235504312
aF0.7010531869324759
aa(lp733
F0.22428254896094263
aF0.6962592014046132
aa(lp734
F0.23431917400278468
aF0.6757722020931106
aa(lp735
F0.2481263656976462
aF0.674583837194087
aa(lp736
F0.26212074309209665
aF0.6567040291487556
aa(lp737
F0.25329743417894063
aF0.6608393171043528
aa(lp738
F0.2869401460293342
aF0.6946663381101383
aa(lp739
F0.255832024566429
aF0.6977188957749412
aa(lp740
F0.26298928204332706
aF0.732722823824217
aa(lp741
F0.2588787202765785
aF0.7401145875874597
aa(lp742
F0.27243419295505783
aF0.7643371881740355
aa(lp743
F0.2964736614979351
aF0.7709490978618271
aa(lp744
F0.27677719504378995
aF0.7885028342938328
aa(lp745
F0.2576091400319713
aF0.8052271884820067
aa(lp746
F0.2921556103453167
aF0.7817620727081858
aa(lp747
F0.3103524650498489
aF0.8009378854108447
aa(lp748
F0.2972559731457093
aF0.7769305657597461
aa(lp749
F0.30245565506704764
aF0.775509298453661
aa(lp750
F0.3085467748850457
aF0.7937313861916546
aa(lp751
F0.3111172356023453
aF0.7745321926116989
aa(lp752
F0.33415682714901357
aF0.754411734427896
aa(lp753
F0.32093292565148057
aF0.7596787823185006
aa(lp754
F0.3083458654843833
aF0.7734953400700539
aa(lp755
F0.30486496978420813
aF0.7626328062066892
aa(lp756
F0.28864443105889753
aF0.7475688338372105
aa(lp757
F0.26449573422375483
aF0.7590906028738585
aa(lp758
F0.29520009960439036
aF0.7502002889176309
aa(lp759
F0.2683972509849423
aF0.7521154597476588
aa(lp760
F0.2622483208295227
aF0.7286313233858873
aa(lp761
F0.28232607239687746
aF0.7159033542952863
aa(lp762
F0.2428846810759498
aF0.7023579378818882
aa(lp763
F0.27267454462833085
aF0.6950666957196342
aa(lp764
F0.2574354462152097
aF0.6753840848251276
aa(lp765
F0.25169641814611604
aF0.6938879398515915
aa(lp766
F0.25300291694196986
aF0.6944116837491405
aa(lp767
F0.25378441040249183
aF0.6742692373347204
aa(lp768
F0.2573943201882344
aF0.6852981449555081
aa(lp769
F0.2754276539821464
aF0.7303655340658636
aa(lp770
F0.2931580676443711
aF0.6719064270368844
aa(lp771
F0.2929493459868005
aF0.6793451606686187
aa(lp772
F0.2670726551598507
aF0.7135705151324364
aa(lp773
F0.27577957857137203
aF0.748159236007733
aa(lp774
F0.275168455910201
aF0.779780229729423
aa(lp775
F0.27594050696723266
aF0.7931089942789317
aa(lp776
F0.3101051953307851
aF0.8242375811391739
aa(lp777
F0.30204366173455094
aF0.8201732233428494
aa(lp778
F0.32610316833114894
aF0.8096399580019621
aa(lp779
F0.2991384887578915
aF0.8470503865676646
aa(lp780
F0.30102328486553276
aF0.8528863661978127
aa(lp781
F0.3191344375134044
aF0.8567013569094797
aa(lp782
F0.3581942642488848
aF0.8293503704830945
aa(lp783
F0.36958157715994083
aF0.8277758613192431
aa(lp784
F0.3650185064581386
aF0.8352318803858885
aa(lp785
F0.3639806772517
aF0.8059776626605355
aa(lp786
F0.38555145752977305
aF0.7865266711862176
aa(lp787
F0.37954116025778717
aF0.7857020407282199
aa(lp788
F0.36741353785894854
aF0.7788039091270792
aa(lp789
F0.3939437529659452
aF0.8045395195228979
aa(lp790
F0.34849845587037936
aF0.8697489863995732
aa(lp791
F0.3613848185220981
aF0.8730364953471149
aa(lp792
F0.3635364642758094
aF0.8499956753562069
aa(lp793
F0.38223197265073405
aF0.8647287755431434
aa(lp794
F0.3842838802912636
aF0.8580310868579918
aa(lp795
F0.4003508747863845
aF0.8802298666777705
aa(lp796
F0.4137726326150182
aF0.8867365318527496
aa(lp797
F0.3957498377364089
aF0.9294111881823581
aa(lp798
F0.3710608222286679
aF0.9118412472324793
aa(lp799
F0.37069514408776216
aF0.9219521997194651
aa(lp800
F0.387897656034112
aF0.9313175064552394
aa(lp801
F0.3764307992870233
aF0.95334132019085
aa(lp802
F0.3847396035047083
aF0.953128347440866
aa(lp803
F0.3747824362175068
aF0.9832605318997419
aa(lp804
F0.3655258484066955
aF0.9965863600737445
aa(lp805
F0.37856136797730056
aF0.9733666062622615
aa(lp806
F0.3755522967260022
aF0.9634182453491233
aa(lp807
F0.351488687078081
aF0.9411159093575876
aa(lp808
F0.3394847960177718
aF0.8943768399615205
aa(lp809
F0.334220833831006
aF0.8595215139253601
aa(lp810
F0.325384049888068
aF0.8468522425107547
aa(lp811
F0.31412194408003236
aF0.857731070444919
aa(lp812
F0.3106686115547904
aF0.8341226994713763
aa(lp813
F0.3108102947911865
aF0.8195185819591425
aa(lp814
F0.31514320111703115
aF0.8411295397296813
aa(lp815
F0.29495383508534195
aF0.8774334015050462
aa(lp816
F0.3145166180237965
aF0.9243976493093857
aa(lp817
F0.3162984343085833
aF0.924371193903871
aa(lp818
F0.3146900447679018
aF0.9194618677141039
aa(lp819
F0.3373386196368543
aF0.8954769222839462
aa(lp820
F0.333325890198798
aF0.8990530568881576
aa(lp821
F0.341787210795309
aF0.875859359105452
aa(lp822
F0.3506502548358267
aF0.8391087391694163
aa(lp823
F0.362482647059589
aF0.869850064782905
aa(lp824
F0.3556695304157587
aF0.9018202102838897
aa(lp825
F0.34250496658711005
aF0.8942120199373701
aa(lp826
F0.3434474429285842
aF0.8747677038724139
aa(lp827
F0.33008167796629256
aF0.8782448642440991
aa(lp828
F0.3524401780010789
aF0.8861775553601404
aa(lp829
F0.3971450947711921
aF0.8826585275732745
aa(lp830
F0.3971960466844771
aF0.8874959824258404
aa(lp831
F0.39175931851482176
aF0.9114201013187005
aa(lp832
F0.3899529440094941
aF0.9117700509027887
aa(lp833
F0.3882497065520707
aF0.8807189399722084
aa(lp834
F0.39543288621799033
aF0.8804968066897292
aa(lp835
F0.4001163072146087
aF0.8890981351551576
aa(lp836
F0.40618470622632247
aF0.9136403517007424
aa(lp837
F0.39458540783314133
aF0.9312711954863814
aa(lp838
F0.3856042460425794
aF0.9277760742848823
aa(lp839
F0.39529341667995405
aF0.919748773458483
aa(lp840
F0.3460952361934838
aF0.9304698927466095
aa(lp841
F0.361455520858185
aF0.919926270504277
aa(lp842
F0.3571128371426326
aF0.9273755977462012
aa(lp843
F0.38089528140699475
aF0.9066490557984079
aa(lp844
F0.369607491455946
aF0.8767609850881019
aa(lp845
F0.34759418483505944
aF0.8486204441687462
aa(lp846
F0.3555419412143501
aF0.866099530498584
aa(lp847
F0.347229838550033
aF0.8241690500356721
aa(lp848
F0.3793378158258821
aF0.8211263555923
aa(lp849
F0.39364250058483397
aF0.8301460791071923
aa(lp850
F0.3862222239052066
aF0.8658193983586199
aa(lp851
F0.37575415855877775
aF0.8502138615913682
aa(lp852
F0.35849830203058397
aF0.8600296807584212
aa(lp853
F0.34367894265849974
aF0.8662788497700544
aa(lp854
F0.35240979904003805
aF0.8764151861008376
aa(lp855
F0.3431263828661713
aF0.8881206816948477
aa(lp856
F0.35410460431840923
aF0.8864521400235218
aa(lp857
F0.3365665474048747
aF0.8949527510021931
aa(lp858
F0.3256006103962795
aF0.8852628935299534
aa(lp859
F0.30755497706806156
aF0.8462479815301356
aa(lp860
F0.2999260754727528
aF0.8104727901591965
aa(lp861
F0.29037278294013047
aF0.8088635852119255
aa(lp862
F0.26438201429169034
aF0.8416319613156658
aa(lp863
F0.2696822430945726
aF0.8283049072177114
aa(lp864
F0.26197649140488627
aF0.8262513180742675
aa(lp865
F0.28316308672283697
aF0.8254371232861074
aa(lp866
F0.3199126037145594
aF0.8095467700839124
aa(lp867
F0.34659162814823596
aF0.8045547118587597
aa(lp868
F0.35097561253670717
aF0.7882340448654642
aa(lp869
F0.362701269734286
aF0.7591445285945198
aa(lp870
F0.34895363735718204
aF0.7684791225960402
aa(lp871
F0.3553732812115217
aF0.7764786737030507
aa(lp872
F0.3757746700031263
aF0.7558735617231956
aa(lp873
F0.37649263892013635
aF0.7432937412533761
aa(lp874
F0.39172864718165906
aF0.7745215983477404
aa(lp875
F0.4077395135975135
aF0.8168738933755791
aa(lp876
F0.34507162971424893
aF0.8418506794591969
aa(lp877
F0.35412040608241724
aF0.8703030104790279
aa(lp878
F0.3513690344987804
aF0.850723300202952
aa(lp879
F0.3417715005346344
aF0.8386608864634437
aa(lp880
F0.34872510093466874
aF0.8614529281617039
aa(lp881
F0.34696490073375597
aF0.8601541834976574
aa(lp882
F0.34064558591820304
aF0.8564313536929011
aa(lp883
F0.32519284803541604
aF0.8559291198172716
aa(lp884
F0.35665227877873495
aF0.8451164938011728
aa(lp885
F0.3514889923521859
aF0.8359396720350012
aa(lp886
F0.3532685529872948
aF0.8476385127296256
aa(lp887
F0.38579155408356736
aF0.8809487837223753
aa(lp888
F0.3627916132622715
aF0.8880000440035328
aa(lp889
F0.3493381866952323
aF0.9363304192905963
aa(lp890
F0.3478283430911903
aF0.9001739961863238
aa(lp891
F0.350554220954026
aF0.8904988817692205
aa(lp892
F0.35804665763597787
aF0.8651784434362864
aa(lp893
F0.3283456104493346
aF0.864462419533612
aa(lp894
F0.2925721029816992
aF0.8463235558005888
aa(lp895
F0.31570949405306226
aF0.816041526975953
aa(lp896
F0.2887785127088484
aF0.8038814859442207
aa(lp897
F0.279443032780199
aF0.8092052347049502
aa(lp898
F0.27588294661148216
aF0.7804069413256476
aa(lp899
F0.27376539198331334
aF0.7779745883283519
aa(lp900
F0.2850956238349712
aF0.7649604238976766
aa(lp901
F0.2816742096266175
aF0.7683221147021266
aa(lp902
F0.27901829263244116
aF0.7711413430320616
aa(lp903
F0.2925000938245072
aF0.8046849653228595
aa(lp904
F0.3008528247439923
aF0.8058511966201687
aa(lp905
F0.2812320777933405
aF0.8118806282016551
aa(lp906
F0.2926080769775323
aF0.8155033862820144
aa(lp907
F0.2687338523785053
aF0.7947993139949889
aa(lp908
F0.3057939595228951
aF0.7812672328234083
aa(lp909
F0.3194213689535963
aF0.7932614777792559
aa(lp910
F0.2910563448057595
aF0.7869449071682294
aa(lp911
F0.31467019401460083
aF0.7833728851673051
aa(lp912
F0.28492938799394596
aF0.7574116701808076
aa(lp913
F0.2842790494510694
aF0.7430098539170732
aa(lp914
F0.2686854466156992
aF0.7255810322422657
aa(lp915
F0.2609494626277847
aF0.7143252769281535
aa(lp916
F0.27291313098343395
aF0.7228051823040504
aa(lp917
F0.26860505059776835
aF0.7383599566236336
aa(lp918
F0.2765985679312204
aF0.7141774578611231
aa(lp919
F0.28140628070965396
aF0.7171310569160838
aa(lp920
F0.3018343361579178
aF0.7335398940886859
aa(lp921
F0.2834029086137853
aF0.7210025941054647
aa(lp922
F0.30729240285109793
aF0.7582034832857867
aa(lp923
F0.2922049901418198
aF0.7471479426388736
aa(lp924
F0.30162600653650135
aF0.7619196435068524
aa(lp925
F0.30394726160400987
aF0.7906807996648507
aa(lp926
F0.3212503669627308
aF0.8164848881760217
aa(lp927
F0.3157162881462557
aF0.8135278394341832
aa(lp928
F0.3069421555673963
aF0.8198344259256423
aa(lp929
F0.28283848911030607
aF0.8229703979857893
aa(lp930
F0.3010176688536137
aF0.8173613458306045
aa(lp931
F0.29950285007558125
aF0.7904841859922572
aa(lp932
F0.302922228483878
aF0.7953419376619425
aa(lp933
F0.32256291678717947
aF0.8093340540484031
aa(lp934
F0.33663547870478283
aF0.8097534803349499
aa(lp935
F0.3180917083650372
aF0.7827479033429587
aa(lp936
F0.31291149146384417
aF0.8178853596924394
aa(lp937
F0.3025440358150399
aF0.800066266903995
aa(lp938
F0.32119993975084343
aF0.7793228390803998
aa(lp939
F0.30767103456272504
aF0.7819349809946796
aa(lp940
F0.3118660530417406
aF0.7590010445284184
aa(lp941
F0.3161027979899412
aF0.7876738961094628
aa(lp942
F0.3124033822441214
aF0.7999884223526097
aa(lp943
F0.3354048431367921
aF0.8134791982805615
aa(lp944
F0.31584471109096557
aF0.772659623920814
aa(lp945
F0.3064030933487178
aF0.7950847261298859
aa(lp946
F0.32134324603089987
aF0.7859008467389008
aa(lp947
F0.32040847867140354
aF0.7696494706422053
aa(lp948
F0.3332806794830125
aF0.7621179288073616
aa(lp949
F0.33458685308230973
aF0.7515427440625913
aa(lp950
F0.3422022020001521
aF0.7885161486975312
aa(lp951
F0.31059571998830837
aF0.7849391862971341
aa(lp952
F0.3027694372276693
aF0.7833228456305836
aa(lp953
F0.2903308955350677
aF0.7925698920405329
aa(lp954
F0.2936480280227011
aF0.777233500590444
aa(lp955
F0.280775170104641
aF0.7364835167337883
aa(lp956
F0.28590547813924866
aF0.7478656527807727
aa(lp957
F0.24756887228488958
aF0.745405296102153
aa(lp958
F0.23368064751605602
aF0.7249951899225185
aa(lp959
F0.24817153787100324
aF0.7495202864162017
aa(lp960
F0.2245347426118207
aF0.7813140672205211
aa(lp961
F0.22074537734407454
aF0.7807019104483007
aa(lp962
F0.22270315122086
aF0.7597973035745802
aa(lp963
F0.24116981633580714
aF0.7888022741530821
aa(lp964
F0.22543701136132954
aF0.7504005161678597
aa(lp965
F0.1896805148603774
aF0.7353640048198334
aa(lp966
F0.1972497126213126
aF0.7259225633301734
aa(lp967
F0.21042860965360358
aF0.7138245051572375
aa(lp968
F0.19784349478796645
aF0.6947391575458567
aa(lp969
F0.18117776588617085
aF0.6788442205115202
aa(lp970
F0.18908545037925778
aF0.6675175349917165
aa(lp971
F0.21345272047307248
aF0.6889203547949075
aa(lp972
F0.2252548712036132
aF0.704776876362232
aa(lp973
F0.26114545339688955
aF0.7065298987531633
aa(lp974
F0.2334003002183769
aF0.6746160698996472
aa(lp975
F0.21300508905829235
aF0.6808520778211258
aa(lp976
F0.21205448408359834
aF0.6543285634678239
aa(lp977
F0.18704085113263494
aF0.6524925535339264
aa(lp978
F0.1739792033840619
aF0.6504035800809262
aa(lp979
F0.1768074485425745
aF0.6304332475223087
aa(lp980
F0.17762360357549378
aF0.644892220152365
aa(lp981
F0.17064526087761123
aF0.615057540372851
aa(lp982
F0.18612261726133225
aF0.6156405727666386
aa(lp983
F0.20710617643841425
aF0.6190380251657457
aa(lp984
F0.18762178806891808
aF0.6121530489284186
aa(lp985
F0.20499349958779986
aF0.5890783458046445
aa(lp986
F0.20448424949568994
aF0.567639679423237
aa(lp987
F0.20332991274820944
aF0.5917590921167349
aa(lp988
F0.18228237170737588
aF0.5589297251711773
aa(lp989
F0.18241170733089773
aF0.5593986317580685
aa(lp990
F0.17138249833596703
aF0.5669779594713549
aa(lp991
F0.16332785453210713
aF0.5500026181215683
aa(lp992
F0.1629037724234215
aF0.5529835510115813
aa(lp993
F0.15372507020599172
aF0.5608508455734498
aa(lp994
F0.1466080122164458
aF0.5698878036488481
aa(lp995
F0.13755414120157242
aF0.5301948358381926
aa(lp996
F0.1570523380100846
aF0.5491015287548797
aa(lp997
F0.1394266732654468
aF0.530686283513794
aa(lp998
F0.18686323740189212
aF0.5486662404157635
aa(lp999
F0.2132727226862613
aF0.5591283871683309
aa(lp1000
F0.17871667108761674
aF0.5189972020496676
aa(lp1001
F0.18527306516635214
aF0.5012926331354196
aa(lp1002
F0.18434952138951818
aF0.49053468028006264
aa(lp1003
F0.1903614522751213
aF0.5267212847623125
aa(lp1004
F0.16424494475236145
aF0.5253624195803273
aa(lp1005
F0.17132940801188817
aF0.5092045165637777
aa(lp1006
F0.14977744788540404
aF0.4564111241432416
aa(lp1007
F0.12764315602711285
aF0.43366211497025575
aa(lp1008
F0.12840250294762884
aF0.42103931310633835
aa(lp1009
F0.11644682039577245
aF0.3939135968344844
aa(lp1010
F0.11857098268420042
aF0.370819998382393
aa(lp1011
F0.11573050431908113
aF0.3662134392114611
aa(lp1012
F0.09639238810354449
aF0.3814803485314537
aa(lp1013
F0.10831806888544147
aF0.38929636394480677
aa(lp1014
F0.12773076066311864
aF0.3808681043321061
aa(lp1015
F0.15701601120120992
aF0.39337629267282953
aa(lp1016
F0.15954852065934386
aF0.36247449734818227
aa(lp1017
F0.18511625435421697
aF0.3953663026228542
aa(lp1018
F0.18842679611184576
aF0.39837562817275307
aa(lp1019
F0.18306914119873768
aF0.4030301762820863
aa(lp1020
F0.13873597543345026
aF0.40366480913241365
aa(lp1021
F0.13700077561720664
aF0.4183891817044864
aa(lp1022
F0.13739366643895926
aF0.44386640649372544
aa(lp1023
F0.1190008603545034
aF0.44884544405755894
aa(lp1024
F0.13472023071033631
aF0.4573758124090457
aa(lp1025
F0.1616667180525645
aF0.4755463243370276
aa(lp1026
F0.16308744726201574
aF0.4706273663323301
aa(lp1027
F0.17891705300441157
aF0.464671352954452
aa(lp1028
F0.18343746413830564
aF0.4297926014546243
aa(lp1029
F0.18974987341366337
aF0.4477643925114747
aa(lp1030
F0.20579478259887513
aF0.48026092066512943
aa(lp1031
F0.18658266284595448
aF0.5073431391524214
aa(lp1032
F0.2088498362513836
aF0.5187610678750635
aa(lp1033
F0.21303019996642622
aF0.5405989810250347
aa(lp1034
F0.18929976980270616
aF0.5466919967475689
aa(lp1035
F0.17779201955072196
aF0.5208633365899648
aa(lp1036
F0.20352575818184354
aF0.5112347451475505
aa(lp1037
F0.20278801021903745
aF0.5347141634438944
aa(lp1038
F0.20078537676121755
aF0.5251413269425622
aa(lp1039
F0.2317698809038854
aF0.5447013443619133
aa(lp1040
F0.17646979162556506
aF0.5254314172973696
aa(lp1041
F0.1824012851550305
aF0.5611820604786502
aa(lp1042
F0.18786193258909767
aF0.5572117165598657
aa(lp1043
F0.17856244521314962
aF0.5921288837588818
aa(lp1044
F0.18873388269191516
aF0.5657639352996561
aa(lp1045
F0.1623858780349584
aF0.5574281825847093
aa(lp1046
F0.16470717425856002
aF0.5735127741784356
aa(lp1047
F0.19377828521555246
aF0.5926597310663693
aa(lp1048
F0.19638241568088766
aF0.6214741004557426
aa(lp1049
F0.23495608495633577
aF0.6332089960766796
aa(lp1050
F0.2302049227655355
aF0.617063041165818
aa(lp1051
F0.24208293297943456
aF0.6316942424114717
aa(lp1052
F0.22595864377173383
aF0.6513741580286128
aa(lp1053
F0.2095157142772953
aF0.6203768531018401
aa(lp1054
F0.19850599894485543
aF0.6346124679657342
aa(lp1055
F0.25681581664812003
aF0.6286994422179596
aa(lp1056
F0.22316667645564725
aF0.6060357701513909
aa(lp1057
F0.23082111320698842
aF0.6020021185787153
aa(lp1058
F0.19683784456069894
aF0.6120362156457428
aa(lp1059
F0.23104999010234276
aF0.6324290745767718
aa(lp1060
F0.21232046643657557
aF0.6370764766313128
aa(lp1061
F0.20565015551522983
aF0.6092743976233195
aa(lp1062
F0.19114023558001234
aF0.5983495560433602
aa(lp1063
F0.19313104583953375
aF0.6062740442559134
aa(lp1064
F0.17894594947948486
aF0.5990402219864076
aa(lp1065
F0.17060736982543315
aF0.5855580351792633
aa(lp1066
F0.14446550329070448
aF0.5678467819238876
aa(lp1067
F0.13441240726944287
aF0.562766501981229
aa(lp1068
F0.14738427285398084
aF0.5881016242213806
aa(lp1069
F0.13644692407503767
aF0.5902647664141
aa(lp1070
F0.17936634384208483
aF0.5503560543648298
aa(lp1071
F0.1943165897332226
aF0.5455991823361808
aa(lp1072
F0.20409957211744062
aF0.5475579812168364
aa(lp1073
F0.2175392932335925
aF0.5684724961732129
aa(lp1074
F0.22237441397369803
aF0.5565985518512323
aa(lp1075
F0.2313626991382956
aF0.5775302559839449
aa(lp1076
F0.2310848185820105
aF0.5901226613137851
aa(lp1077
F0.26570890619886667
aF0.5809428287584162
aa(lp1078
F0.23000015940105753
aF0.5450249117393687
aa(lp1079
F0.2317534219107179
aF0.5509959518460487
aa(lp1080
F0.24681938127193379
aF0.5557784697191073
aa(lp1081
F0.22148230912718062
aF0.5704364186557452
aa(lp1082
F0.23229533445121275
aF0.5691041897954163
aa(lp1083
F0.2245030477776568
aF0.5646243218837536
aa(lp1084
F0.20893218475431458
aF0.5508151008509925
aa(lp1085
F0.2154502903243545
aF0.5281030409677037
aa(lp1086
F0.17700573957748264
aF0.5301071231291856
aa(lp1087
F0.17679337984966031
aF0.5556775903154517
aa(lp1088
F0.16040963128026264
aF0.5536454751126586
aa(lp1089
F0.16990867721638345
aF0.5502097382231457
aa(lp1090
F0.16666435714734987
aF0.5572772058090788
aa(lp1091
F0.14777613486056673
aF0.5414036169887984
aa(lp1092
F0.14419138026417044
aF0.5247850383205054
aa(lp1093
F0.13793711074537707
aF0.5366511092169037
aa(lp1094
F0.1532746355707023
aF0.5328279267603198
aa(lp1095
F0.148858892753747
aF0.5472281114965517
aa(lp1096
F0.15932341322659466
aF0.5449455902993976
aa(lp1097
F0.17185715833682508
aF0.5537450911604445
aa(lp1098
F0.17689653185126097
aF0.550085078069092
aa(lp1099
F0.18864844797356362
aF0.5650875609299304
aa(lp1100
F0.19823860439370797
aF0.5773151405754131
aa(lp1101
F0.18224074107515384
aF0.5817594624122385
aa(lp1102
F0.17253511715813924
aF0.5837328507950796
aa(lp1103
F0.20345664517535678
aF0.5766636252310584
aa(lp1104
F0.1905075663287073
aF0.6115849807019688
aa(lp1105
F0.20183019976021582
aF0.6079593447130575
aa(lp1106
F0.1666946137610458
aF0.6063364647023854
aa(lp1107
F0.17844559379339975
aF0.5970067623572303
aa(lp1108
F0.166843044363695
aF0.6005703787937704
aa(lp1109
F0.16792824630389322
aF0.6179346907917798
aa(lp1110
F0.16316862628079878
aF0.6216143422348263
aa(lp1111
F0.14486617081158415
aF0.5929375524396187
aa(lp1112
F0.13036479019323632
aF0.5717284358818535
aa(lp1113
F0.16488670455448978
aF0.5814196819106727
aa(lp1114
F0.1736603686097979
aF0.5639923382349948
aa(lp1115
F0.19656832331562163
aF0.5244089901363265
aa(lp1116
F0.182701725615602
aF0.5632478162681044
aa(lp1117
F0.16137858772865804
aF0.5484353611738075
aa(lp1118
F0.19018395761917936
aF0.5617811691902592
aa(lp1119
F0.1804848738030198
aF0.5630629872449653
aa(lp1120
F0.1861820841231589
aF0.5738145621789258
aa(lp1121
F0.205998383579486
aF0.5635357143659356
aa(lp1122
F0.21954956206991216
aF0.5672767119590629
aa(lp1123
F0.23218843259696925
aF0.5578193230904326
aa(lp1124
F0.22113238119717452
aF0.5502331392351729
aa(lp1125
F0.1952492993182823
aF0.5394680897713824
aa(lp1126
F0.18466809161530068
aF0.5539298516656013
aa(lp1127
F0.17070035235478126
aF0.5577535582717527
aa(lp1128
F0.16739221705368074
aF0.5869625803628137
aa(lp1129
F0.1824809134627151
aF0.6056601880269018
aa(lp1130
F0.17021594414727664
aF0.6050050240921787
aa(lp1131
F0.16824402820471449
aF0.5702898480522699
aa(lp1132
F0.18158971025075207
aF0.5654574866391159
aa(lp1133
F0.18802999193652817
aF0.5651592795598646
aa(lp1134
F0.18699844042390962
aF0.5755546422216713
aa(lp1135
F0.19315112675161777
aF0.5964212404651604
aa(lp1136
F0.2053065699663804
aF0.6073705982139024
aa(lp1137
F0.20729751422383882
aF0.6161020564312767
aa(lp1138
F0.21804969416166495
aF0.6225740250294229
aa(lp1139
F0.17843195052271688
aF0.6252825913458339
aa(lp1140
F0.1658000874102001
aF0.5835956085201742
aa(lp1141
F0.1699749546072567
aF0.6272373503714579
aa(lp1142
F0.15446725903334865
aF0.5927347136144788
aa(lp1143
F0.16167721389208176
aF0.5629534474161356
aa(lp1144
F0.20100433646265306
aF0.5384204402466488
aa(lp1145
F0.1918445953826252
aF0.5090148386239269
aa(lp1146
F0.19509494562469615
aF0.5211482091180131
aa(lp1147
F0.15190294329416096
aF0.5097442730469951
aa(lp1148
F0.1564039606617779
aF0.49311279403672365
aa(lp1149
F0.14704204733504914
aF0.49893732617012226
aa(lp1150
F0.1301197775287109
aF0.508095776047568
aa(lp1151
F0.10514077266839669
aF0.4783656759459135
aa(lp1152
F0.10060232229090157
aF0.4624637935864692
aa(lp1153
F0.1040153920977079
aF0.48588825586132106
aa(lp1154
F0.1125796759380655
aF0.4787265780908997
aa(lp1155
F0.12392250650575452
aF0.4756306919126367
aa(lp1156
F0.15613261373335316
aF0.4925968629439353
aa(lp1157
F0.1604815451994694
aF0.49435621768096377
aa(lp1158
F0.13058437835767162
aF0.47823834375071195
aa(lp1159
F0.12701882476129223
aF0.4932909596938986
aa(lp1160
F0.12838003475214915
aF0.5170559587930526
aa(lp1161
F0.13147625578543853
aF0.48952540377639137
aa(lp1162
F0.11931564629106141
aF0.507745165687869
aa(lp1163
F0.1648545410524754
aF0.5357917815826256
aa(lp1164
F0.14997394236505007
aF0.5245389754799279
aa(lp1165
F0.1915580546695133
aF0.5340408441024982
aa(lp1166
F0.19315711093974458
aF0.5326769065455486
aa(lp1167
F0.17543513762642846
aF0.5349023372283136
aa(lp1168
F0.17800346641281303
aF0.5424447051188243
aa(lp1169
F0.19676640322791036
aF0.5584968920899318
aa(lp1170
F0.19186116237374098
aF0.564126032209581
aa(lp1171
F0.16956033703374718
aF0.5919029022559361
aa(lp1172
F0.19168297483601193
aF0.5889010668576901
aa(lp1173
F0.19293230557218932
aF0.5817492053235763
aa(lp1174
F0.20073863044746812
aF0.5700443830733719
aa(lp1175
F0.186053536190305
aF0.5826871468986687
aa(lp1176
F0.20005905353980238
aF0.6004618005771957
aa(lp1177
F0.18966157420377103
aF0.6104811274983531
aa(lp1178
F0.20735563731522572
aF0.6195090090089507
aa(lp1179
F0.18375303022295858
aF0.5939025544271248
aa(lp1180
F0.17348898543511643
aF0.5936483562325414
aa(lp1181
F0.19708280025362698
aF0.5863572063306768
aa(lp1182
F0.19885849172732564
aF0.624119577155703
aa(lp1183
F0.169191136831557
aF0.6078022971172576
aa(lp1184
F0.17707560172544318
aF0.5937928837411658
aa(lp1185
F0.17400116585530706
aF0.5986826509149952
aa(lp1186
F0.17889773255066327
aF0.5954181369903756
aa(lp1187
F0.18961565952570283
aF0.5987913478582058
aa(lp1188
F0.18157270728999558
aF0.5788838960863952
aa(lp1189
F0.19790835812180754
aF0.6037985967950369
aa(lp1190
F0.1855423451866855
aF0.5996855322964691
aa(lp1191
F0.1960466913232272
aF0.6125683316756456
aa(lp1192
F0.2127074810920279
aF0.6118355453325867
aa(lp1193
F0.18437015641721094
aF0.6222174468790249
aa(lp1194
F0.1984340049914462
aF0.636888592056012
aa(lp1195
F0.20987616184554514
aF0.6266694120876107
aa(lp1196
F0.23375646126033203
aF0.6019386790439525
aa(lp1197
F0.20658974421405873
aF0.5996625247973165
aa(lp1198
F0.23851286921011502
aF0.5850421865758022
aa(lp1199
F0.2545722568339336
aF0.5808158570834439
aa(lp1200
F0.25083108950510946
aF0.5771830605807006
aa(lp1201
F0.2542627320221886
aF0.6008425073036202
aa(lp1202
F0.24361652043849572
aF0.5691203514403685
aa(lp1203
F0.21624274803851481
aF0.5783325075733677
aa(lp1204
F0.20408455973111125
aF0.5501037016800653
aa(lp1205
F0.20412372520466168
aF0.5806175589719291
aa(lp1206
F0.2026664935133109
aF0.5863755252549192
aa(lp1207
F0.1970033764320097
aF0.6066726043964724
aa(lp1208
F0.20026648028899657
aF0.6217837722783387
aa(lp1209
F0.19873320598463623
aF0.5968370878988073
aa(lp1210
F0.20591856069750086
aF0.60738945154657
aa(lp1211
F0.1919536405426204
aF0.5907295048314156
aa(lp1212
F0.19349199575843237
aF0.6047756153424607
aa(lp1213
F0.1844200729700253
aF0.5996255970637921
aa(lp1214
F0.17392854847202097
aF0.578450400550069
aa(lp1215
F0.1563059443336668
aF0.5898117220130438
aa(lp1216
F0.17795387703003224
aF0.5958256843188067
aa(lp1217
F0.15764556127255336
aF0.585862718944127
aa(lp1218
F0.16601152275986228
aF0.5784953571846072
aa(lp1219
F0.1420592195819948
aF0.5730627684589041
aa(lp1220
F0.18427760560990453
aF0.5418216187995414
aa(lp1221
F0.17380515556752305
aF0.5290490274005195
aa(lp1222
F0.16538567563895212
aF0.5405793768515933
aa(lp1223
F0.17067484092375632
aF0.5124783468109331
aa(lp1224
F0.1945167723809855
aF0.5165034087655458
aa(lp1225
F0.19589451404601627
aF0.5347280445732875
aa(lp1226
F0.19050372713492794
aF0.5221345696547799
aa(lp1227
F0.19595989552864548
aF0.5410861359985177
aa(lp1228
F0.1919058458956579
aF0.5565119203101001
aa(lp1229
F0.19999417998385588
aF0.5494160747077149
aa(lp1230
F0.21008014811723924
aF0.5556228196161491
aa(lp1231
F0.19477305049668556
aF0.5473048173246876
aa(lp1232
F0.2111874835473248
aF0.5783680992471524
aa(lp1233
F0.21556932225350517
aF0.6154428050326158
aa(lp1234
F0.21681993940953917
aF0.6026984367965669
aa(lp1235
F0.23917695139181328
aF0.612367032280258
aa(lp1236
F0.2663911862181661
aF0.6334074484725793
aa(lp1237
F0.2810549446500874
aF0.624318653053912
aa(lp1238
F0.3049359995063788
aF0.6281852576077884
aa(lp1239
F0.2975925170303538
aF0.6402522224648636
aa(lp1240
F0.29975267372881925
aF0.6605593803766361
aa(lp1241
F0.2774135785065832
aF0.6607324641909265
aa(lp1242
F0.2383632391686172
aF0.6454389432912445
aa(lp1243
F0.24063480385603028
aF0.6401498887747921
aa(lp1244
F0.23125672481434947
aF0.6304249631315259
aa(lp1245
F0.2291468042873168
aF0.6275867650740897
aa(lp1246
F0.2314803622157902
aF0.6462381246607062
aa(lp1247
F0.2159564106353455
aF0.6307216301055006
aa(lp1248
F0.22053466067867117
aF0.6772858997242325
aa(lp1249
F0.19453538726023623
aF0.6914875021063498
aa(lp1250
F0.19062793103347817
aF0.6931800403245085
aa(lp1251
F0.20069702009089202
aF0.6974853093780112
aa(lp1252
F0.20742916058110547
aF0.6689415467918436
aa(lp1253
F0.19847388731668728
aF0.6753859903356525
aa(lp1254
F0.21447614268792653
aF0.6580074322300248
aa(lp1255
F0.2519271056501608
aF0.6695740708940648
aa(lp1256
F0.2542331110844399
aF0.6573638988583997
aa(lp1257
F0.25936410261127474
aF0.671031874223814
aa(lp1258
F0.24697410878557163
aF0.6755361801553332
aa(lp1259
F0.2297386994334608
aF0.6879076173449997
aa(lp1260
F0.20920935991225031
aF0.6547801602520394
aa(lp1261
F0.20879117570752753
aF0.6600514274322336
aa(lp1262
F0.21476870959878014
aF0.6734160623950037
aa(lp1263
F0.24433389183091717
aF0.685917058007606
aa(lp1264
F0.2636926996079655
aF0.6572512854941251
aa(lp1265
F0.24376562449155337
aF0.6591878492220711
aa(lp1266
F0.2519177661773662
aF0.6693810216687563
aa(lp1267
F0.23400284762054677
aF0.6632080221916656
aa(lp1268
F0.22846386687611542
aF0.6834668845663517
aa(lp1269
F0.24360342672701418
aF0.6785382433899995
aa(lp1270
F0.22929917543942696
aF0.6929843791941276
aa(lp1271
F0.20138163532893322
aF0.6671224012799962
aa(lp1272
F0.21899578648347617
aF0.6492312668912692
aa(lp1273
F0.1937057352544932
aF0.6396423589032069
aa(lp1274
F0.2254577308837766
aF0.662142505031787
aa(lp1275
F0.2129020953696221
aF0.6773143829312841
aa(lp1276
F0.24649318505136442
aF0.6579921318155054
aa(lp1277
F0.2559248144264776
aF0.669579070831733
aa(lp1278
F0.2351198836056026
aF0.6451658814257891
aa(lp1279
F0.23112210826886279
aF0.6223651554398896
aa(lp1280
F0.19958918947450588
aF0.618255169520167
aa(lp1281
F0.19167388313307096
aF0.6218587033225713
aa(lp1282
F0.21658746804120782
aF0.6595654689063639
aa(lp1283
F0.24417045771768295
aF0.6554951606845906
aa(lp1284
F0.2545541044340995
aF0.637709108494421
aa(lp1285
F0.2603645518743462
aF0.6407430814733075
aa(lp1286
F0.24848021716300348
aF0.6599853194341117
aa(lp1287
F0.2440964699334621
aF0.6736683519746863
aa(lp1288
F0.2502768718941079
aF0.6861779431574719
aa(lp1289
F0.25210594327060254
aF0.7130004564442122
aa(lp1290
F0.27052424608458286
aF0.7190021063433292
aa(lp1291
F0.25283937803800904
aF0.717429172107018
aa(lp1292
F0.26013680554079116
aF0.6892906474636541
aa(lp1293
F0.23117917928862317
aF0.7213113634914895
aa(lp1294
F0.23940781945905265
aF0.6811545020636073
aa(lp1295
F0.2662008080727328
aF0.660119221032673
aa(lp1296
F0.2790596401436204
aF0.672342761542876
aa(lp1297
F0.25377224570100154
aF0.6946241605653956
aa(lp1298
F0.2614465479317798
aF0.6987682987129864
aa(lp1299
F0.25783813917262294
aF0.692172769350657
aa(lp1300
F0.24697116325108795
aF0.6638053747696949
aa(lp1301
F0.24478547455372288
aF0.6735172047973039
aa(lp1302
F0.269319340197146
aF0.6653861220197405
aa(lp1303
F0.26574410977575647
aF0.6535468099666533
aa(lp1304
F0.2578982840065686
aF0.6308222474338018
aa(lp1305
F0.24119468516631146
aF0.6234941851149919
aa(lp1306
F0.2058873805006574
aF0.5897230852344755
aa(lp1307
F0.18866964738679734
aF0.5994316455085151
aa(lp1308
F0.22356530378898773
aF0.6167943862335202
aa(lp1309
F0.21528921944033472
aF0.6116295351559674
aa(lp1310
F0.19624233141546596
aF0.6237253344693645
aa(lp1311
F0.19654373312900358
aF0.6195664244872745
aa(lp1312
F0.21611433383051334
aF0.6434643075815168
aa(lp1313
F0.2081659682635089
aF0.6120501559203928
aa(lp1314
F0.21818812915250851
aF0.6103738269115465
aa(lp1315
F0.22230318737767388
aF0.6250553627261387
aa(lp1316
F0.25667045034880925
aF0.6519823569262975
aa(lp1317
F0.25570064112905466
aF0.6598345737304193
aa(lp1318
F0.269612905348023
aF0.6591083622274171
aa(lp1319
F0.23684453456962226
aF0.6756331446031464
aa(lp1320
F0.23145826911410972
aF0.6795000977687735
aa(lp1321
F0.22262051188853138
aF0.6634297784358211
aa(lp1322
F0.1973919793556781
aF0.6480928252351806
aa(lp1323
F0.1701626246461309
aF0.6575872627385632
aa(lp1324
F0.16688004173956564
aF0.6387560115587254
aa(lp1325
F0.16444786725333913
aF0.6129386228682046
aa(lp1326
F0.19198964058400617
aF0.6014154961394389
aa(lp1327
F0.18933169179742412
aF0.6211528391386412
aa(lp1328
F0.1907519820279517
aF0.6405875382606536
aa(lp1329
F0.2114207900329198
aF0.5974663718232678
aa(lp1330
F0.21612295851108784
aF0.5937179567642981
aa(lp1331
F0.22372654200934308
aF0.6208588634895889
aa(lp1332
F0.2331891130672636
aF0.631587424970565
aa(lp1333
F0.23401731827579725
aF0.6488832056641923
aa(lp1334
F0.26544991128009
aF0.6449214191495224
aa(lp1335
F0.2871736468309246
aF0.6719962792232141
aa(lp1336
F0.29237091346709526
aF0.6375707068207463
aa(lp1337
F0.2443476797321466
aF0.6584436274685952
aa(lp1338
F0.25312655855541455
aF0.6795469744346692
aa(lp1339
F0.27637901264493636
aF0.6616421733962905
aa(lp1340
F0.28632669832701496
aF0.6424096333427668
aa(lp1341
F0.2958929838786996
aF0.6717885422691008
aa(lp1342
F0.2859250953808189
aF0.6760024612217895
aa(lp1343
F0.25684520505335595
aF0.6867878172045854
aa(lp1344
F0.24573219088417386
aF0.6633979215807942
aa(lp1345
F0.24587206079059473
aF0.6597698054335305
aa(lp1346
F0.25669530592881995
aF0.6616587042786517
aa(lp1347
F0.2340563651157001
aF0.6773512997266674
aa(lp1348
F0.21092540542655275
aF0.6861952250390417
aa(lp1349
F0.20911150064095338
aF0.7014430350527269
aa(lp1350
F0.2221109845609776
aF0.7189541785632889
aa(lp1351
F0.2393832814991551
aF0.7373528195489168
aa(lp1352
F0.2236832629373041
aF0.7195296346176513
aa(lp1353
F0.210439785790419
aF0.7094910663799734
aa(lp1354
F0.1951678787050583
aF0.6728260810438305
aa(lp1355
F0.17737725989142478
aF0.664092102394856
aa(lp1356
F0.18856769130674275
aF0.6967544649159251
aa(lp1357
F0.21036740306955756
aF0.7098777966964508
aa(lp1358
F0.22043429080577726
aF0.7261541422135175
aa(lp1359
F0.22961063807971338
aF0.7349438066033471
aa(lp1360
F0.2468444336255341
aF0.7539016021760864
aa(lp1361
F0.28324707183248765
aF0.7531699189144878
aa(lp1362
F0.26857697442492445
aF0.7190780121308098
aa(lp1363
F0.2664990276637251
aF0.7197020295554495
aa(lp1364
F0.2848658688658888
aF0.7206148480317667
aa(lp1365
F0.27247905173447734
aF0.740963585435056
aa(lp1366
F0.23750915566942934
aF0.7379716288937035
aa(lp1367
F0.2150793394821012
aF0.751788945728635
aa(lp1368
F0.21389208549549693
aF0.736084582256358
aa(lp1369
F0.2156294491556797
aF0.7413584681821173
aa(lp1370
F0.22074020252555693
aF0.7325116065542122
aa(lp1371
F0.2430755653930738
aF0.7424288618531257
aa(lp1372
F0.26586272568861025
aF0.743957175111002
aa(lp1373
F0.24396647376390623
aF0.7340831624243501
aa(lp1374
F0.22672973098864505
aF0.7344781235548594
aa(lp1375
F0.22313825234365578
aF0.7286216583641092
aa(lp1376
F0.23489984018750132
aF0.7039141725593779
aa(lp1377
F0.2304574089129695
aF0.7296569248596946
aa(lp1378
F0.24629281984274023
aF0.7151396704173801
aa(lp1379
F0.25345718566824543
aF0.7196079389595039
aa(lp1380
F0.2240316416028889
aF0.7087648924263171
aa(lp1381
F0.24755635625089795
aF0.6872064476185313
aa(lp1382
F0.2561760345869817
aF0.6785174474791329
aa(lp1383
F0.25332885713890696
aF0.7025343689376179
aa(lp1384
F0.2492701212890581
aF0.6998127384705896
aa(lp1385
F0.2546436506853775
aF0.6555634862817487
aa(lp1386
F0.2746986828019923
aF0.674545506349698
aa(lp1387
F0.2641811402059084
aF0.7033285676313232
aa(lp1388
F0.280272414750526
aF0.70106657807751
aa(lp1389
F0.28865668046085885
aF0.6935324026549559
aa(lp1390
F0.2762012466280567
aF0.664394327834229
aa(lp1391
F0.3083301603427284
aF0.7132526931340015
aa(lp1392
F0.3069168354811871
aF0.7590620649659334
aa(lp1393
F0.31692541945491265
aF0.7290073374088955
aa(lp1394
F0.3235735153632777
aF0.7408695802100046
aa(lp1395
F0.2992043485227606
aF0.7654809037761652
aa(lp1396
F0.28431023712575865
aF0.7905534885102338
aa(lp1397
F0.27260005745842125
aF0.7838680254584357
aa(lp1398
F0.2641804171494484
aF0.7842718461744942
aa(lp1399
F0.27181614429647216
aF0.7738701827484453
aa(lp1400
F0.28563771827208045
aF0.7492536875136333
aa(lp1401
F0.28555960526522334
aF0.7429268964301506
aa(lp1402
F0.29339485914310237
aF0.757546475710269
aa(lp1403
F0.30867433475465555
aF0.7793015606804784
aa(lp1404
F0.3171170836940755
aF0.767291891002095
aa(lp1405
F0.3233109650129046
aF0.7699600173686212
aa(lp1406
F0.3321691131019683
aF0.7796336453765315
aa(lp1407
F0.3276349060929903
aF0.8125290867921384
aa(lp1408
F0.2784058571974795
aF0.8388051690403253
aa(lp1409
F0.3038348262996191
aF0.7801778293439401
aa(lp1410
F0.3064360607953001
aF0.8018314782275472
aa(lp1411
F0.31338608766387693
aF0.7767878319750887
aa(lp1412
F0.34370461165011484
aF0.7813548171939038
aa(lp1413
F0.3534047315235285
aF0.7779853908008462
aa(lp1414
F0.32935905239063995
aF0.782305661096508
aa(lp1415
F0.3156210084915488
aF0.8052615143156561
aa(lp1416
F0.329570203129306
aF0.8298825443466433
aa(lp1417
F0.34170831100012017
aF0.8008585167662254
aa(lp1418
F0.30115209719874253
aF0.7941464227114463
aa(lp1419
F0.31042637053053707
aF0.7493113597112173
aa(lp1420
F0.29905461139258627
aF0.7295617422122049
aa(lp1421
F0.2830245000130167
aF0.7222994350129897
aa(lp1422
F0.28481230990263984
aF0.7555856006849547
aa(lp1423
F0.2592096313951276
aF0.7478303394615432
aa(lp1424
F0.2556519147158035
aF0.7374958377659413
aa(lp1425
F0.27869650161634346
aF0.7516261824753473
aa(lp1426
F0.2834853776310635
aF0.7437310238494554
aa(lp1427
F0.2846063593533579
aF0.7394222461637632
aa(lp1428
F0.3091365573013016
aF0.7519239056080843
aa(lp1429
F0.3108595068802653
aF0.7539280655449614
aa(lp1430
F0.30366467998911856
aF0.7758702238173689
aa(lp1431
F0.29500584402310714
aF0.75728343473398
aa(lp1432
F0.29641712489982924
aF0.7285419282138077
aa(lp1433
F0.3057924825666556
aF0.7552970951460807
aa(lp1434
F0.3091740322957724
aF0.7590382582757931
aa(lp1435
F0.30150477129122966
aF0.7731468363401335
aa(lp1436
F0.28956412544881255
aF0.7288930092421576
aa(lp1437
F0.28517287497539695
aF0.7535689118263259
aa(lp1438
F0.29976487321292455
aF0.7631512433721851
aa(lp1439
F0.29820715221467264
aF0.7726259161636142
aa(lp1440
F0.3004052828155181
aF0.7393822968655345
aa(lp1441
F0.2977851933433597
aF0.7191716332434076
aa(lp1442
F0.25833127236343467
aF0.6875304892943834
aa(lp1443
F0.2684253163266281
aF0.7015840547204938
aa(lp1444
F0.2324085221563843
aF0.6736403715106406
aa(lp1445
F0.22853234042332096
aF0.6555574021583682
aa(lp1446
F0.20187645341333732
aF0.6813141475607758
aa(lp1447
F0.23203422974976695
aF0.7008179136753581
aa(lp1448
F0.233165489483968
aF0.679394323684274
aa(lp1449
F0.23668659482969148
aF0.6659619241981557
aa(lp1450
F0.24142739830211904
aF0.6640169740912654
aa(lp1451
F0.22541628359229943
aF0.6744724388409065
aa(lp1452
F0.22432976502568894
aF0.6880631882347976
aa(lp1453
F0.2669073090415006
aF0.7348053405425331
aa(lp1454
F0.23850868799198485
aF0.7308429347779433
aa(lp1455
F0.25496295409882713
aF0.7476072423326194
aa(lp1456
F0.2390361897773597
aF0.714167580636597
aa(lp1457
F0.24298823406398237
aF0.7056297154497247
aa(lp1458
F0.2524667336088585
aF0.7212920707839583
aa(lp1459
F0.25207488046904114
aF0.6919319265474406
aa(lp1460
F0.24783573278590906
aF0.6705571477326245
aa(lp1461
F0.21484882741712097
aF0.6521120460807571
aa(lp1462
F0.18947718575055128
aF0.6502367972139452
aa(lp1463
F0.19381738555388298
aF0.6795364979321248
aa(lp1464
F0.19210563419244164
aF0.6417092698577656
aa(lp1465
F0.19915991666200986
aF0.6504027052657315
aa(lp1466
F0.21288576073526344
aF0.6795924645784748
aa(lp1467
F0.1955620327823643
aF0.6904866034577412
aa(lp1468
F0.18797752219195749
aF0.6828054015689425
aa(lp1469
F0.18195520426598216
aF0.6806984865492334
aa(lp1470
F0.2110636136497453
aF0.6791864481574719
aa(lp1471
F0.2182214232478411
aF0.6860652216729662
aa(lp1472
F0.2457353799125389
aF0.6873217903917274
aa(lp1473
F0.26084059947576455
aF0.6370453335663445
aa(lp1474
F0.2514074819818522
aF0.6476831072354474
aa(lp1475
F0.25279596561924433
aF0.6447710532775764
aa(lp1476
F0.22766409987130903
aF0.6360430344238145
aa(lp1477
F0.22316354863996815
aF0.6694800650514324
aa(lp1478
F0.2256090823842833
aF0.660715124841728
aa(lp1479
F0.2570922091463271
aF0.7034926151797586
aa(lp1480
F0.2732958522246657
aF0.7242591678515794
aa(lp1481
F0.27617474021512356
aF0.7215546627971295
aa(lp1482
F0.26847055015995624
aF0.6969377882782493
aa(lp1483
F0.2627719550420431
aF0.6676903222661075
aa(lp1484
F0.24762616689509784
aF0.6662176486340402
aa(lp1485
F0.22450992849905801
aF0.6430425214398079
aa(lp1486
F0.2230303968533409
aF0.647158157832008
aa(lp1487
F0.21963571768858497
aF0.6423586171687333
aa(lp1488
F0.2376467861010978
aF0.6729105077016216
aa(lp1489
F0.24347574997782237
aF0.6812238051235279
aa(lp1490
F0.24848858769412424
aF0.6892150615631003
aa(lp1491
F0.21368639008887957
aF0.6843111842296276
aa(lp1492
F0.22153825260885546
aF0.6821712379855567
aa(lp1493
F0.23602655037726983
aF0.66908517469216
aa(lp1494
F0.24378132269158678
aF0.643311695447181
aa(lp1495
F0.24158663050897236
aF0.6061935696155208
aa(lp1496
F0.25537783666387104
aF0.6207373391382714
aa(lp1497
F0.2633763861243527
aF0.627345229761605
aa(lp1498
F0.2961920965789756
aF0.6474312023247871
aa(lp1499
F0.28053297925844584
aF0.6405065622528199
aa(lp1500
F0.2571315897987688
aF0.6315846847132769
aa(lp1501
F0.26175135191328985
aF0.6223505095078764
aa(lp1502
F0.2505441326839542
aF0.6472755685870653
aa(lp1503
F0.24931356679632377
aF0.6529453261642059
aa(lp1504
F0.2408088669907418
aF0.6732380944002665
aa(lp1505
F0.26632515416149816
aF0.6911845141803835
aa(lp1506
F0.2909214352698968
aF0.6625545364601986
aa(lp1507
F0.2864938632572786
aF0.6924395742013199
aa(lp1508
F0.26380635444659695
aF0.7002171135517498
aa(lp1509
F0.2530973545407727
aF0.6796405688655738
aa(lp1510
F0.25117706199449935
aF0.6815714894045002
aa(lp1511
F0.2357613049017508
aF0.6801618252024845
aa(lp1512
F0.20944201569559273
aF0.6653950358841365
aa(lp1513
F0.2527527751611001
aF0.6494565618668472
aa(lp1514
F0.2544310774012421
aF0.6687990209331411
aa(lp1515
F0.2376346053191089
aF0.7067387608108209
aa(lp1516
F0.23233171559644808
aF0.6788616660249787
aa(lp1517
F0.22035711574481098
aF0.6599197586085122
aa(lp1518
F0.21965509106582723
aF0.6575088567255568
aa(lp1519
F0.23981081845219746
aF0.6604764878336312
aa(lp1520
F0.24521012997158473
aF0.6601993584104514
aa(lp1521
F0.24357683196607244
aF0.6744630259610985
aa(lp1522
F0.23300454150052868
aF0.6560123148315913
aa(lp1523
F0.21191745968236236
aF0.6280072685486418
aa(lp1524
F0.18923356352112045
aF0.6561812571838366
aa(lp1525
F0.21022835277685942
aF0.6272160442407262
aa(lp1526
F0.20872385885785186
aF0.6158431741460254
aa(lp1527
F0.20710248125884345
aF0.6209410567722218
aa(lp1528
F0.18357737403605334
aF0.626382440664604
aa(lp1529
F0.1767267085416943
aF0.6046005461973926
aa(lp1530
F0.20172449783473415
aF0.6326107884607078
aa(lp1531
F0.22037894947255465
aF0.6398733805838137
aa(lp1532
F0.20151057075145434
aF0.6545703046779021
aa(lp1533
F0.22310367394182756
aF0.6513375582466285
aa(lp1534
F0.21503300762380545
aF0.6492381777040919
aa(lp1535
F0.19016444117929499
aF0.6631371906935447
aa(lp1536
F0.20212482290325076
aF0.6502885976304607
aa(lp1537
F0.21753517454609522
aF0.639679708897713
aa(lp1538
F0.2018964387354213
aF0.6446018550312516
aa(lp1539
F0.19435026197827443
aF0.6472341625658317
aa(lp1540
F0.17568735730588955
aF0.6234350717091822
aa(lp1541
F0.17132463048848645
aF0.6193475104058187
aa(lp1542
F0.16374417243003453
aF0.631665167125889
aa(lp1543
F0.19755945785553722
aF0.6213508338492865
aa(lp1544
F0.1674901270676613
aF0.6296356136818586
aa(lp1545
F0.18413938535406404
aF0.6377530167052508
aa(lp1546
F0.1866636870007007
aF0.6321650806574133
aa(lp1547
F0.1978243745715626
aF0.654260119647212
aa(lp1548
F0.18106514871141946
aF0.6688341538853091
aa(lp1549
F0.2216048730676622
aF0.6424000408698454
aa(lp1550
F0.24245190788527837
aF0.65050157429262
aa(lp1551
F0.2545274205880652
aF0.7017662864692792
aa(lp1552
F0.24856647146546912
aF0.7153316081077828
aa(lp1553
F0.23496678002019833
aF0.7128445639089998
aa(lp1554
F0.24421587226474692
aF0.7301658830174794
aa(lp1555
F0.2527349627323579
aF0.7245036556295145
aa(lp1556
F0.24857295995741732
aF0.7239076543300292
aa(lp1557
F0.26656312964280626
aF0.7433679158787401
aa(lp1558
F0.2924927084093007
aF0.7183095327156479
aa(lp1559
F0.29577280719618176
aF0.7190300382116027
aa(lp1560
F0.2363529118164579
aF0.7023058921610185
aa(lp1561
F0.25070027035759695
aF0.7158142241213449
aa(lp1562
F0.2704434638335008
aF0.7392318362448982
aa(lp1563
F0.2619814787077775
aF0.743996271001702
aa(lp1564
F0.2718128901387851
aF0.7782635053701955
aa(lp1565
F0.26222375398873965
aF0.7828670162138025
aa(lp1566
F0.25487734997307027
aF0.7814903755965692
aa(lp1567
F0.24627210016842196
aF0.7769444182876593
aa(lp1568
F0.2836430292280632
aF0.7663873688892491
aa(lp1569
F0.29902374738523063
aF0.7612437303404115
aa(lp1570
F0.28135876839046253
aF0.7863201559767908
aa(lp1571
F0.31110112698734343
aF0.81307693506144
aa(lp1572
F0.29556778147329604
aF0.8020218332611602
aa(lp1573
F0.30364541415132007
aF0.7644751639684575
aa(lp1574
F0.3065941561629637
aF0.7840691467825436
aa(lp1575
F0.3285490433091267
aF0.7788744969615744
aa(lp1576
F0.35451798005077095
aF0.8079640441802773
aa(lp1577
F0.32145293701420224
aF0.8180655588991074
aa(lp1578
F0.30939875575594544
aF0.8032835669673261
aa(lp1579
F0.3017939618326932
aF0.7664299045263389
aa(lp1580
F0.30326809534057425
aF0.7816505827504228
aa(lp1581
F0.30714646991644284
aF0.7908660897197826
aa(lp1582
F0.2876641379799393
aF0.7873447920392495
aa(lp1583
F0.27898031441358023
aF0.7876585413338835
aa(lp1584
F0.29229256299119466
aF0.7894877533062327
aa(lp1585
F0.3254345566830422
aF0.7972612293302833
aa(lp1586
F0.3234749108704201
aF0.7956710691979034
aa(lp1587
F0.29024751876083693
aF0.7906323431107611
aa(lp1588
F0.30794306654056647
aF0.7942327782999175
aa(lp1589
F0.30848283678626404
aF0.7702978510428884
aa(lp1590
F0.334111627552494
aF0.7760984800285574
aa(lp1591
F0.3411659769631302
aF0.7853578971824862
aa(lp1592
F0.3734956994916944
aF0.7691925647836431
aa(lp1593
F0.3826411220039153
aF0.7730437292271661
aa(lp1594
F0.36391470066746323
aF0.7657330636433212
aa(lp1595
F0.38348162305162553
aF0.7652699356549416
aa(lp1596
F0.3908201370365767
aF0.7781744767331863
aa(lp1597
F0.3530568386940262
aF0.7619071938390819
aa(lp1598
F0.35412213313886665
aF0.7775749871802589
aa(lp1599
F0.3783156056398903
aF0.8096304687639729
aa(lp1600
F0.3688902218395222
aF0.7818011837728395
aa(lp1601
F0.3920932315848767
aF0.7853747061400635
aa(lp1602
F0.39090811915944707
aF0.7677668509023643
aa(lp1603
F0.3841132735135223
aF0.7569428396395615
aa(lp1604
F0.37303855582026935
aF0.8125485399024632
aa(lp1605
F0.38380749245846507
aF0.8051200346946359
aa(lp1606
F0.37622530540926
aF0.802983075946418
aa(lp1607
F0.377625738469782
aF0.8373149219099912
aa(lp1608
F0.36945117625163687
aF0.8459304110703924
aa(lp1609
F0.37691245435355425
aF0.8330876482110192
aa(lp1610
F0.35560545252495157
aF0.8489109520916135
aa(lp1611
F0.3655627397889278
aF0.8527425687085209
aa(lp1612
F0.32687037546486697
aF0.8266712916163426
aa(lp1613
F0.35913435992270376
aF0.8169962503772229
aa(lp1614
F0.3138474130639561
aF0.8233326511352008
aa(lp1615
F0.3100318963145279
aF0.8037875855599562
aa(lp1616
F0.3304269853713921
aF0.8183906132148085
aa(lp1617
F0.3551823626921895
aF0.8406112325570834
aa(lp1618
F0.367981390846368
aF0.8254558830956458
aa(lp1619
F0.38082790183224813
aF0.8144161179360744
aa(lp1620
F0.3724609993093037
aF0.8011800748754611
aa(lp1621
F0.37018314745780295
aF0.803288631379062
aa(lp1622
F0.37153287520785916
aF0.8041436759653682
aa(lp1623
F0.31760349144783095
aF0.7880908072947979
aa(lp1624
F0.2855685728234372
aF0.7779670668290735
aa(lp1625
F0.29752492527551877
aF0.8058182905287262
aa(lp1626
F0.290066183334254
aF0.7802083805044976
aa(lp1627
F0.28839764765765286
aF0.7885010904381046
aa(lp1628
F0.29347587049577384
aF0.7731655755804114
aa(lp1629
F0.2887066624038066
aF0.7473326970191285
aa(lp1630
F0.276638158362986
aF0.7640927272493847
aa(lp1631
F0.27781255572557306
aF0.7809227869920687
aa(lp1632
F0.2721965481432728
aF0.8122798762217587
aa(lp1633
F0.27494730981878035
aF0.8357415952440156
aa(lp1634
F0.26017572000293226
aF0.7975769786699366
aa(lp1635
F0.26905015899014834
aF0.7951167430084908
aa(lp1636
F0.3031301715506594
aF0.8174544809802573
aa(lp1637
F0.3330389372522856
aF0.8010202301043338
aa(lp1638
F0.347504100970657
aF0.8345847083795117
aa(lp1639
F0.34102685296386526
aF0.8309663901645449
aa(lp1640
F0.32647639344604945
aF0.8264397496567293
aa(lp1641
F0.36516187333205957
aF0.8160091712139345
aa(lp1642
F0.347703770306127
aF0.7975305534871299
aa(lp1643
F0.36288195368947135
aF0.812311770599418
aa(lp1644
F0.3416428014144825
aF0.8092531689975058
aa(lp1645
F0.3396375981053724
aF0.8062792231974295
aa(lp1646
F0.37339877829985235
aF0.8061525979542116
aa(lp1647
F0.36039258682105185
aF0.7785812954914152
aa(lp1648
F0.3637596486670695
aF0.7774339505220031
aa(lp1649
F0.37663416979826664
aF0.7825769990032678
aa(lp1650
F0.36279375770355726
aF0.7673496591954929
aa(lp1651
F0.3627018612168498
aF0.7864591200504856
aa(lp1652
F0.3296269358458135
aF0.7724214762929651
aa(lp1653
F0.34803410713711763
aF0.7731175527329516
aa(lp1654
F0.35131525488568316
aF0.7968329772316575
aa(lp1655
F0.3363487170800934
aF0.7790196733289271
aa(lp1656
F0.36300448051091333
aF0.7514544185185563
aa(lp1657
F0.357863540095268
aF0.7540931481980522
aa(lp1658
F0.316258693159364
aF0.7779100187916486
aa(lp1659
F0.2863784308397226
aF0.7950341123512832
aa(lp1660
F0.2834977212491898
aF0.8103699660574379
aa(lp1661
F0.2913508818127069
aF0.7835871576610329
aa(lp1662
F0.2598312608170905
aF0.7650485863748354
aa(lp1663
F0.2520460229036812
aF0.7536957790610225
aa(lp1664
F0.24076788532205184
aF0.76702426218526
aa(lp1665
F0.26495453848999734
aF0.7622634968749559
aa(lp1666
F0.25440045069175854
aF0.7368837898854026
aa(lp1667
F0.2832556494009251
aF0.7329676864687179
aa(lp1668
F0.27800782515082706
aF0.7382996487049029
aa(lp1669
F0.26232256176173996
aF0.7676856044575759
aa(lp1670
F0.26848358806147676
aF0.7470933883586646
aa(lp1671
F0.26273861202468873
aF0.7193238529037269
aa(lp1672
F0.2672634614764489
aF0.668760656468214
aa(lp1673
F0.2885749555636077
aF0.6608037369352261
aa(lp1674
F0.28683911959301156
aF0.649236887266551
aa(lp1675
F0.2924188163852165
aF0.6286900573181399
aa(lp1676
F0.274542928085587
aF0.6191762762916038
aa(lp1677
F0.2685726886782258
aF0.6303775096762997
aa(lp1678
F0.24361408145331956
aF0.6494940456777449
aa(lp1679
F0.26577144153804955
aF0.6588810387199705
aa(lp1680
F0.2469307247689258
aF0.6700816946313143
aa(lp1681
F0.24183021721621262
aF0.6438482755049396
aa(lp1682
F0.2323568243178237
aF0.6271461206061163
aa(lp1683
F0.22160055267332573
aF0.6194632758985686
aa(lp1684
F0.23277209285629888
aF0.6117452110683068
aa(lp1685
F0.20186028552993376
aF0.5739814016186024
aa(lp1686
F0.21734466583832698
aF0.5998728612704746
aa(lp1687
F0.22402936901405102
aF0.5862283844927283
aa(lp1688
F0.2469605243517071
aF0.6017236527398093
aa(lp1689
F0.2440198467202848
aF0.5969920678694427
aa(lp1690
F0.2232538373112642
aF0.609941162264525
aa(lp1691
F0.23765463737904344
aF0.5866651597842606
aa(lp1692
F0.20309641546345814
aF0.5624046240769303
aa(lp1693
F0.16012779813002143
aF0.5439360767971678
aa(lp1694
F0.11561341931056292
aF0.5241608384211657
aa(lp1695
F0.11064066225127155
aF0.5232836215953102
aa(lp1696
F0.1286024963206
aF0.5041162292961648
aa(lp1697
F0.1363328822179197
aF0.5421428487103895
aa(lp1698
F0.12986034660056078
aF0.5661884675268052
aa(lp1699
F0.13579917290409477
aF0.5807721423189167
aa(lp1700
F0.1431313958120736
aF0.564982284196861
aa(lp1701
F0.14157558938184672
aF0.5573660446656196
aa(lp1702
F0.13789634126102532
aF0.5068206028232445
aa(lp1703
F0.13557786797670576
aF0.5311442468167714
aa(lp1704
F0.12725337747350998
aF0.5319216321987854
aa(lp1705
F0.1273745038114337
aF0.5306896376129576
aa(lp1706
F0.12454489094915028
aF0.5375805705601728
aa(lp1707
F0.14645002301761248
aF0.5428205065845094
aa(lp1708
F0.18961196692198592
aF0.5645480442900265
aa(lp1709
F0.20563018209979314
aF0.6015958587538084
aa(lp1710
F0.20813893824793406
aF0.5979558635485298
aa(lp1711
F0.21553623182892082
aF0.58795381169634
aa(lp1712
F0.20484683165329123
aF0.6184214002104912
aa(lp1713
F0.19862445186190344
aF0.6117039759024079
aa(lp1714
F0.20753521308591003
aF0.6165002839055614
aa(lp1715
F0.21227376132028677
aF0.6431526499089529
aa(lp1716
F0.1991124053410454
aF0.6478292889979731
aa(lp1717
F0.23160934237383787
aF0.6498270482462161
aa(lp1718
F0.24390041751793623
aF0.6398356156490375
aa(lp1719
F0.21908158206173953
aF0.6646241451087473
aa(lp1720
F0.24417411500840744
aF0.6545249606440335
aa(lp1721
F0.24487162486001385
aF0.6657788128715237
aa(lp1722
F0.2474875593865467
aF0.6545290765180767
aa(lp1723
F0.2616731249693486
aF0.6648898795444106
aa(lp1724
F0.2531093670007467
aF0.6770658355762007
aa(lp1725
F0.2615288864569068
aF0.6619617047441337
aa(lp1726
F0.23958433554273487
aF0.6381982489903953
aa(lp1727
F0.21556110667851253
aF0.6299787239323038
aa(lp1728
F0.2262910008972085
aF0.6461200507639815
aa(lp1729
F0.2146140849787046
aF0.6542831863429155
aa(lp1730
F0.2116027771171062
aF0.6335382832473268
aa(lp1731
F0.20530442195151244
aF0.6309085857313192
aa(lp1732
F0.20649631301866936
aF0.6338167020584017
aa(lp1733
F0.18159094458930128
aF0.6355428382058376
aa(lp1734
F0.22289089641540213
aF0.6691605515447954
aa(lp1735
F0.24991417471856323
aF0.6371112497242231
aa(lp1736
F0.24778490548175766
aF0.6707376728120126
aa(lp1737
F0.2527711095933221
aF0.6836324701385682
aa(lp1738
F0.26026376551377267
aF0.6866469735193274
aa(lp1739
F0.27074268710476024
aF0.7000845739880664
aa(lp1740
F0.2845449112092109
aF0.7199249940267858
aa(lp1741
F0.3004467530057909
aF0.7184837688527265
aa(lp1742
F0.2826156936323661
aF0.7177596129375767
aa(lp1743
F0.29237849102416313
aF0.7361002798539952
aa(lp1744
F0.26786693436408016
aF0.7417647977686544
aa(lp1745
F0.2687261868727736
aF0.7412712219285232
aa(lp1746
F0.26643296769166636
aF0.7075840428910383
aa(lp1747
F0.2626436153922323
aF0.712238986253865
aa(lp1748
F0.267293721026882
aF0.7507141953124106
aa(lp1749
F0.22134638317726144
aF0.7619021017094636
aa(lp1750
F0.23066638505268416
aF0.7467877092440658
aa(lp1751
F0.2400627934328334
aF0.7632191961261011
aa(lp1752
F0.24942504655314768
aF0.7618038477720837
aa(lp1753
F0.25685206510047187
aF0.7710228418468216
aa(lp1754
F0.24871123401743092
aF0.7887020551576549
aa(lp1755
F0.2531047980049062
aF0.7768396845155121
aa(lp1756
F0.2850678013457999
aF0.7951085220768679
aa(lp1757
F0.3008376536242525
aF0.8392486409417792
aa(lp1758
F0.3342998417917849
aF0.8583316697390099
aa(lp1759
F0.3465005166400183
aF0.8454406858099586
aa(lp1760
F0.36590510037766055
aF0.8376018603213461
aa(lp1761
F0.3387602520951272
aF0.8400567081599083
aa(lp1762
F0.34965136958831516
aF0.833691013974278
aa(lp1763
F0.3564335883963965
aF0.8262433427030902
aa(lp1764
F0.33790670236833054
aF0.8020835662547635
aa(lp1765
F0.3202661736849558
aF0.7852476436920014
aa(lp1766
F0.29764663413649667
aF0.8116950642685719
aa(lp1767
F0.29959719828410203
aF0.8182399020219335
aa(lp1768
F0.31293906484700895
aF0.8186318471600026
aa(lp1769
F0.31948048784468075
aF0.8167684164524903
aa(lp1770
F0.3540731962356246
aF0.8357244639072974
aa(lp1771
F0.35989951466833003
aF0.8367311557057469
aa(lp1772
F0.330338470193147
aF0.8078531611398936
aa(lp1773
F0.29935884869931106
aF0.8119827925369901
aa(lp1774
F0.29561926569584246
aF0.8146209074859789
aa(lp1775
F0.29332409110349567
aF0.8273598698120331
aa(lp1776
F0.2833928352144657
aF0.8363405223031299
aa(lp1777
F0.3180100128762214
aF0.8379986140017168
aa(lp1778
F0.3095081895005716
aF0.8395461545453315
aa(lp1779
F0.31248794592870827
aF0.8399409184086636
aa(lp1780
F0.3068981410313838
aF0.8427570126716498
aa(lp1781
F0.33701774620554154
aF0.8324134691277233
aa(lp1782
F0.3223106527796965
aF0.8108727691662629
aa(lp1783
F0.32791438092033004
aF0.8618154173004076
aa(lp1784
F0.3266767017884896
aF0.8622207628175386
aa(lp1785
F0.3601455203354275
aF0.8680910785136937
aa(lp1786
F0.3512877842431087
aF0.8687223261350204
aa(lp1787
F0.38368541103766374
aF0.87361867971748
aa(lp1788
F0.3863806591704907
aF0.8814598789412313
aa(lp1789
F0.38713725021270645
aF0.8876694232985285
aa(lp1790
F0.35850456101545414
aF0.8929870998873239
aa(lp1791
F0.38217890063022275
aF0.8967186921100719
aa(lp1792
F0.36479357676424734
aF0.8674971260471179
aa(lp1793
F0.3606259428179284
aF0.8469773223253734
aa(lp1794
F0.355449545073496
aF0.882870527039237
aa(lp1795
F0.3790481826852075
aF0.8687271841491735
aa(lp1796
F0.3649925722670503
aF0.8748135233983303
aa(lp1797
F0.3678180387794284
aF0.8809160052095746
aa(lp1798
F0.3526428054080219
aF0.8740756669047312
aa(lp1799
F0.3479149456167276
aF0.8700631426473575
aa(lp1800
F0.3608094763482819
aF0.8521604450761778
aa(lp1801
F0.38155616258653985
aF0.8540672080240653
aa(lp1802
F0.3838286990234
aF0.879966488762182
aa(lp1803
F0.35990313712678634
aF0.8573556000016237
aa(lp1804
F0.35580974835476753
aF0.8567728436868502
aa(lp1805
F0.34790835204934584
aF0.8531003071689562
aa(lp1806
F0.3399797829054324
aF0.8453593709126156
aa(lp1807
F0.3382396006071367
aF0.8780831248800512
aa(lp1808
F0.3500150537412215
aF0.8789691154545882
aa(lp1809
F0.3486844363055758
aF0.8739080617499071
aa(lp1810
F0.3508975577514279
aF0.9029672622196823
aa(lp1811
F0.363454787992906
aF0.8808958513823663
aa(lp1812
F0.3806627393135061
aF0.8751214506523316
aa(lp1813
F0.35190350983885077
aF0.8773120346875262
aa(lp1814
F0.35074974926259306
aF0.8577289343642078
aa(lp1815
F0.351126452377243
aF0.8735776360573225
aa(lp1816
F0.3357749122185097
aF0.8734629602275388
aa(lp1817
F0.3661056709281949
aF0.85565586677432
aa(lp1818
F0.3169498895335437
aF0.876297839358114
aa(lp1819
F0.3223239297925015
aF0.8699888847821832
aa(lp1820
F0.34721536117033197
aF0.831867259755686
aa(lp1821
F0.3659960790322604
aF0.8460756995804662
aa(lp1822
F0.37244101291132287
aF0.8418682655631569
aa(lp1823
F0.3777378747034326
aF0.8669540591006952
aa(lp1824
F0.37455725621095554
aF0.8711962242785264
aa(lp1825
F0.36952077830393976
aF0.8813384856679966
aa(lp1826
F0.4035288758155262
aF0.8882756321550922
aa(lp1827
F0.378332306493762
aF0.8820198572327506
aa(lp1828
F0.3716018654988061
aF0.8582623346565698
aa(lp1829
F0.3454718201666349
aF0.8554617749401168
aa(lp1830
F0.3158307237058692
aF0.8621849752116509
aa(lp1831
F0.3563306498498178
aF0.8666063316043733
aa(lp1832
F0.36428227228067195
aF0.880410194845427
aa(lp1833
F0.3731558877403259
aF0.8677413492879263
aa(lp1834
F0.3844549162840115
aF0.866445332426263
aa(lp1835
F0.3659101399922778
aF0.8530744866457872
aa(lp1836
F0.3598539697994942
aF0.8334621837871385
aa(lp1837
F0.3337447235293299
aF0.8167608456540363
aa(lp1838
F0.36294724755052576
aF0.8004384899409903
aa(lp1839
F0.34992874109680694
aF0.7950226145125058
aa(lp1840
F0.33936255396681
aF0.7885021425906904
aa(lp1841
F0.336700536789887
aF0.764159777514595
aa(lp1842
F0.3562473708756888
aF0.7601525978897545
aa(lp1843
F0.35707204653529867
aF0.7745826684209186
aa(lp1844
F0.34209862465234375
aF0.7807227910445153
aa(lp1845
F0.32832359831389285
aF0.807084925713521
aa(lp1846
F0.3179509577988862
aF0.7949253048847733
aa(lp1847
F0.3178455087026131
aF0.822893824667972
aa(lp1848
F0.3185095235439575
aF0.8161338819879338
aa(lp1849
F0.3268063874443079
aF0.790318098548753
aa(lp1850
F0.3195052174827994
aF0.7836278396556758
aa(lp1851
F0.30764969527159425
aF0.8248556227241549
aa(lp1852
F0.32626449416838765
aF0.8185930961261582
aa(lp1853
F0.3055525146628911
aF0.8075619147926534
aa(lp1854
F0.3034477386280554
aF0.8170363682357288
aa(lp1855
F0.33944988647208346
aF0.8226885712078197
aa(lp1856
F0.3336614156465649
aF0.8001564426532062
aa(lp1857
F0.31454832774307334
aF0.8309243694522346
aa(lp1858
F0.3026480216273417
aF0.8304981458263787
aa(lp1859
F0.32007222119089523
aF0.7989541284302979
aa(lp1860
F0.34023094691047745
aF0.8219778544725611
aa(lp1861
F0.3323984477189378
aF0.8259472687257952
aa(lp1862
F0.3339547612803219
aF0.8319841741354547
aa(lp1863
F0.35556862050367655
aF0.8617813410099971
aa(lp1864
F0.3165039623561611
aF0.8553525370247622
aa(lp1865
F0.33094601621363784
aF0.8316178919209078
aa(lp1866
F0.34132752892277396
aF0.8549607299561381
aa(lp1867
F0.3597517738961551
aF0.8913878831224363
aa(lp1868
F0.3605643900754716
aF0.9251860358432217
aa(lp1869
F0.34400968948884764
aF0.9095542511248995
aa(lp1870
F0.35709369660415313
aF0.9085973114011996
aa(lp1871
F0.3498770002573749
aF0.9089006285808903
aa(lp1872
F0.3259341555111537
aF0.8761126215309719
aa(lp1873
F0.34370959424194075
aF0.9009568796964385
aa(lp1874
F0.3438533689386386
aF0.8816335391348156
aa(lp1875
F0.32174689830935665
aF0.8874717101926201
aa(lp1876
F0.36031852703854833
aF0.8436105440209806
aa(lp1877
F0.3352748169210098
aF0.8115335273797004
aa(lp1878
F0.35607012021569884
aF0.8033140372257929
aa(lp1879
F0.360631284881603
aF0.8074466718178916
aa(lp1880
F0.35166831671883547
aF0.795873990960683
aa(lp1881
F0.3596895821307651
aF0.8400851912844423
aa(lp1882
F0.32884263145179826
aF0.8120836496200409
aa(lp1883
F0.2984173080319524
aF0.7945853831486496
aa(lp1884
F0.29350832729052495
aF0.7568089698808478
aa(lp1885
F0.31159752525057044
aF0.7555073367302099
aa(lp1886
F0.2969192068789422
aF0.7530513034148045
aa(lp1887
F0.28462181491017213
aF0.7754657821976602
aa(lp1888
F0.2891001139627822
aF0.827735904703058
aa(lp1889
F0.2953780045883086
aF0.8331053023426002
aa(lp1890
F0.3037008794121299
aF0.8663727065609581
aa(lp1891
F0.3187069546388994
aF0.897436415905244
aa(lp1892
F0.3162043871864354
aF0.889355819049125
aa(lp1893
F0.31125982961659926
aF0.9008289928661858
aa(lp1894
F0.3717218153620446
aF0.9155498411747044
aa(lp1895
F0.37034427356511673
aF0.9441936452096694
aa(lp1896
F0.39147275565823175
aF0.951315058480135
aa(lp1897
F0.3794033047376913
aF0.9334478329786331
aa(lp1898
F0.3737071164181699
aF0.9416500965676665
aa(lp1899
F0.3933716536856756
aF0.9413907308295836
aa(lp1900
F0.4004553730550177
aF0.9319107123964554
aa(lp1901
F0.37535776287135153
aF0.9419965054602139
aa(lp1902
F0.37205000439991426
aF0.9508379070825782
aa(lp1903
F0.37528563874624415
aF0.9351113523756466
aa(lp1904
F0.3599774009788289
aF0.9278153075518193
aa(lp1905
F0.3704591820249141
aF0.9368204591687771
aa(lp1906
F0.3705597666847771
aF0.9651907640818532
aa(lp1907
F0.3638408664313753
aF0.9788280445645267
aa(lp1908
F0.37633385611003933
aF0.9372083249864722
aa(lp1909
F0.4042085846752302
aF0.9450808158351327
aa(lp1910
F0.3540042487127441
aF0.921764412602593
aa(lp1911
F0.3192396178161298
aF0.8986900312009073
aa(lp1912
F0.3086182087355181
aF0.8754390103707818
aa(lp1913
F0.30245569536106803
aF0.8754513510121454
aa(lp1914
F0.28239166368229207
aF0.8534979077323843
aa(lp1915
F0.3191388487337837
aF0.8412315304893079
aa(lp1916
F0.3178344047074401
aF0.8523885005836697
aa(lp1917
F0.295522102152341
aF0.8408206741641439
aa(lp1918
F0.3200491139260032
aF0.7939529934910284
aa(lp1919
F0.322753637309653
aF0.7841028682686172
aa(lp1920
F0.3208395507051926
aF0.785861115551384
aa(lp1921
F0.2937364960080245
aF0.7421198198171142
aa(lp1922
F0.2719518988524651
aF0.7417827226713858
aa(lp1923
F0.2679336973802607
aF0.747436703909605
aa(lp1924
F0.24908931156026048
aF0.7281444051540368
aa(lp1925
F0.25378325933712725
aF0.7158475705273748
aa(lp1926
F0.27516879724419147
aF0.7157647257810191
aa(lp1927
F0.26686080751228564
aF0.7007055866262099
aa(lp1928
F0.2378941984159125
aF0.6897101094031469
aa(lp1929
F0.24636023952464073
aF0.6638177467026244
aa(lp1930
F0.2212243576125631
aF0.6633015076990362
aa(lp1931
F0.23293839762437663
aF0.642580133260247
aa(lp1932
F0.2552903996169676
aF0.6562130210838071
aa(lp1933
F0.26557946235257995
aF0.621421633670619
aa(lp1934
F0.25764275899399236
aF0.6342677832888378
aa(lp1935
F0.27116914319952184
aF0.6315950159673298
aa(lp1936
F0.24676792782440488
aF0.6643836376009471
aa(lp1937
F0.24615650744824372
aF0.6736243229011382
aa(lp1938
F0.23657386364731972
aF0.7008974255046762
aa(lp1939
F0.23497643285679007
aF0.6957876119104133
aa(lp1940
F0.22636052058479667
aF0.7020594708729783
aa(lp1941
F0.24324861794934197
aF0.7465081748585053
aa(lp1942
F0.23972952887932117
aF0.736669721495913
aa(lp1943
F0.2522713750075365
aF0.7442878506351945
aa(lp1944
F0.2433538539879615
aF0.7525244504946904
aa(lp1945
F0.22858732603191712
aF0.7325426458506996
aa(lp1946
F0.26346665598700003
aF0.7306445304736945
aa(lp1947
F0.26989641943514797
aF0.7293552410066118
aa(lp1948
F0.2578733061706945
aF0.7268570093854666
aa(lp1949
F0.2785305969109518
aF0.7190250384137173
aa(lp1950
F0.2692573924293912
aF0.71559381312632
aa(lp1951
F0.2582247457815399
aF0.720086103111589
aa(lp1952
F0.2785674926775
aF0.718467063011798
aa(lp1953
F0.2816017999007314
aF0.765338283268092
aa(lp1954
F0.2671629276988624
aF0.7621275777533228
aa(lp1955
F0.2984701365234579
aF0.7628285572992234
aa(lp1956
F0.30356526155939245
aF0.7368766310635506
aa(lp1957
F0.30286108703295045
aF0.7142842624380277
aa(lp1958
F0.2839144355762968
aF0.7388125392382889
aa(lp1959
F0.2942149819484617
aF0.7529902141446047
aa(lp1960
F0.26173328646996996
aF0.7535548919313635
aa(lp1961
F0.24605939825989986
aF0.7195591169670958
aa(lp1962
F0.2646800752874843
aF0.7159720965512831
aa(lp1963
F0.2725450792918414
aF0.7080407105239688
aa(lp1964
F0.2635720982889626
aF0.7231446617480081
aa(lp1965
F0.2748095517321402
aF0.7253324461942887
aa(lp1966
F0.27010994013397605
aF0.709521018982316
aa(lp1967
F0.25135855804779544
aF0.7100426437609879
aa(lp1968
F0.2450518613062275
aF0.7115120599384925
aa(lp1969
F0.2575365106356853
aF0.7246600446957546
aa(lp1970
F0.2793393053085545
aF0.7157316029285432
aa(lp1971
F0.2780460457166166
aF0.7439092132269717
aa(lp1972
F0.2875252277004624
aF0.7693810023078453
aa(lp1973
F0.28165234452029386
aF0.7492660896943951
aa(lp1974
F0.28100170282735787
aF0.7184760582703507
aa(lp1975
F0.28336409991443273
aF0.7008908068794392
aa(lp1976
F0.2819539820450821
aF0.6877525217170707
aa(lp1977
F0.27969250089889797
aF0.7000450872397095
aa(lp1978
F0.27754140994647986
aF0.699245757511643
aa(lp1979
F0.2666290308638284
aF0.7087207608721525
aa(lp1980
F0.272749513756523
aF0.6995919535194441
aa(lp1981
F0.2645758409012001
aF0.7085169831978718
aa(lp1982
F0.2825920689085565
aF0.7280045343713918
aa(lp1983
F0.27569516996884436
aF0.7200724965774137
aa(lp1984
F0.2733669616238922
aF0.7251895489679705
aa(lp1985
F0.29448334107916524
aF0.7670670512629538
aa(lp1986
F0.29154645904380394
aF0.7515087186079092
aa(lp1987
F0.3070171727788783
aF0.7355637649102102
aa(lp1988
F0.3073341522458799
aF0.7758762765392782
aa(lp1989
F0.31601388189450097
aF0.7824927460810729
aa(lp1990
F0.3227621112740299
aF0.7763995969103469
aa(lp1991
F0.3138275570973431
aF0.7799253090970386
aa(lp1992
F0.28405278117360694
aF0.7740770074562475
aa(lp1993
F0.2813973428291966
aF0.7638506178910341
aa(lp1994
F0.2651378849913358
aF0.7476392851189536
aa(lp1995
F0.287709015128788
aF0.7964860259227591
aa(lp1996
F0.2982783142681302
aF0.8083975083528262
aa(lp1997
F0.3167015949113566
aF0.7891338896868191
aa(lp1998
F0.32285708521587786
aF0.7948322884933621
aa(lp1999
F0.34062346537685595
aF0.7757002291255177
aa(lp2000
F0.34346269896789944
aF0.7611935389547324
aa(lp2001
F0.32574744503605213
aF0.7824441362049039
aa(lp2002
F0.29690579945103346
aF0.7731415318959224
aa(lp2003
F0.327974005080225
aF0.7988971618821264
aa(lp2004
F0.30244679865938096
aF0.8255173814399599
aa(lp2005
F0.3336774038500779
aF0.8477906671437213
aa(lp2006
F0.3293017723256753
aF0.8412995270882778
aa(lp2007
F0.3013936234465676
aF0.8196646534375288
aa(lp2008
F0.29455568422154754
aF0.8117994002407436
aa(lp2009
F0.2872461579806474
aF0.8097301163952024
aa(lp2010
F0.2850967629577168
aF0.81774033591658
aa(lp2011
F0.3014033070482903
aF0.7978732667417671
aa(lp2012
F0.30529361219939255
aF0.7901216481374258
aa(lp2013
F0.29677435955144427
aF0.7809033867089981
aa(lp2014
F0.298410223320655
aF0.8016496943434662
aa(lp2015
F0.28523988378348336
aF0.7890890322354932
aaa.