(lp0
(lp1
(lp2
F0.16508270007674203
aF0.5919679313776083
aa(lp3
F0.18626861032124992
aF0.5936949673071551
aa(lp4
F0.21073765915817044
aF0.6409329838531305
aa(lp5
F0.21564757818962157
aF0.6279358151296002
aa(lp6
F0.22258261835594711
aF0.6319913220254918
aa(lp7
F0.2064290272249284
aF0.6584856135084404
aa(lp8
F0.2394632680038327
aF0.6749100375822045
aa(lp9
F0.24380845684705882
aF0.6553677407590833
aa(lp10
F0.22311525441311722
aF0.6687737000134109
aa(lp11
F0.24952250280944005
aF0.6524001820133215
aa(lp12
F0.25083443891107976
aF0.6525022790548759
aa(lp13
F0.20575907453484782
aF0.6741584575070354
aa(lp14
F0.21140594704441065
aF0.669162605997611
aa(lp15
F0.20012992295733656
aF0.6673570898679797
aa(lp16
F0.25035440017212246
aF0.6746911853734271
aa(lp17
F0.24837864351588754
aF0.6710085868759192
aa(lp18
F0.2582197083838134
aF0.666912507089715
aa(lp19
F0.22960230829505268
aF0.6760377377679672
aa(lp20
F0.21566380314337477
aF0.6392314719220354
aa(lp21
F0.23564619417851793
aF0.6299503874552281
aa(lp22
F0.23378589316596277
aF0.6601964556178995
aa(lp23
F0.23526325102660742
aF0.6387120169925057
aa(lp24
F0.2512319543216039
aF0.6471839493410371
aa(lp25
F0.25112536253385065
aF0.6580221920464798
aa(lp26
F0.2610746630474219
aF0.6858872282641483
aa(lp27
F0.22171534189269276
aF0.7096537358177512
aa(lp28
F0.2119400712880726
aF0.7260664004041124
aa(lp29
F0.23305340985651804
aF0.7536131370013412
aa(lp30
F0.2574367173625917
aF0.7086527375262307
aa(lp31
F0.22344699177965296
aF0.699632479733452
aa(lp32
F0.22475397200685138
aF0.7037674712053955
aa(lp33
F0.2365956981917315
aF0.7219292357181272
aa(lp34
F0.23930413152555782
aF0.7282176798320593
aa(lp35
F0.2598787795552263
aF0.7416893446473655
aa(lp36
F0.29053401694003766
aF0.7513651317025095
aa(lp37
F0.312506266682056
aF0.7623114127592332
aa(lp38
F0.3198040422179892
aF0.7616392463548823
aa(lp39
F0.317118016971931
aF0.7688377015143802
aa(lp40
F0.2976683329563995
aF0.7951617443496942
aa(lp41
F0.26315723349743453
aF0.7990576086221037
aa(lp42
F0.2636121138915725
aF0.804543610816462
aa(lp43
F0.2627730575153262
aF0.8030895725978501
aa(lp44
F0.23067532649107114
aF0.7890158703479475
aa(lp45
F0.22476242295412976
aF0.7730633684019099
aa(lp46
F0.25109579461273357
aF0.7962694939933984
aa(lp47
F0.2549577580637805
aF0.7778612880433251
aa(lp48
F0.2472364369692851
aF0.7746894496938036
aa(lp49
F0.2409913338356666
aF0.7493564223206332
aa(lp50
F0.25157955231925777
aF0.76841942370684
aa(lp51
F0.2698654916592107
aF0.7804398686473826
aa(lp52
F0.3117771997315134
aF0.7707966941164078
aa(lp53
F0.3275471917315702
aF0.7784122503073669
aa(lp54
F0.3306803323435578
aF0.787521459147632
aa(lp55
F0.3158005974396998
aF0.8008121361897977
aa(lp56
F0.32655479485611894
aF0.7861983812058022
aa(lp57
F0.3241396483019637
aF0.7846114804443528
aa(lp58
F0.3346743555884262
aF0.7890352977662902
aa(lp59
F0.3264854847832555
aF0.8037936081848082
aa(lp60
F0.2992267695544901
aF0.8027280255393215
aa(lp61
F0.2738090797317417
aF0.8102489944221951
aa(lp62
F0.2697518251546007
aF0.7860369021168169
aa(lp63
F0.26625251250634235
aF0.7967096805617855
aa(lp64
F0.3055149824906729
aF0.8221842268387679
aa(lp65
F0.3196913932307351
aF0.7995006146740595
aa(lp66
F0.3400584308477755
aF0.8063919173867969
aa(lp67
F0.3300036847758712
aF0.8090647106820129
aa(lp68
F0.3032012512764417
aF0.8055782724853443
aa(lp69
F0.28605098091330666
aF0.7817072811612084
aa(lp70
F0.2968566222073645
aF0.7733933490261751
aa(lp71
F0.27257946864716687
aF0.7381235310091335
aa(lp72
F0.2954631347761622
aF0.7855598668209464
aa(lp73
F0.28702214897831146
aF0.7915934980168595
aa(lp74
F0.2799604823724684
aF0.7499850864294638
aa(lp75
F0.2858818048129422
aF0.7645828537111576
aa(lp76
F0.30815475163156464
aF0.7426655760659819
aa(lp77
F0.2889043359164791
aF0.7366900354580829
aa(lp78
F0.26019318985726053
aF0.7417962452889091
aa(lp79
F0.24053399333088216
aF0.7239394018002591
aa(lp80
F0.2479319608361152
aF0.7191258906878386
aa(lp81
F0.2458627692031614
aF0.7049559769886595
aa(lp82
F0.2722065555248528
aF0.7388906256064365
aa(lp83
F0.2667804864068918
aF0.7525317172905426
aa(lp84
F0.2781852522517014
aF0.7214904419816565
aa(lp85
F0.27556252047504015
aF0.7113145542889449
aa(lp86
F0.29322299171109495
aF0.7044079864906704
aa(lp87
F0.3009552829507064
aF0.7020972296372463
aa(lp88
F0.3281915307131555
aF0.7001061209893963
aa(lp89
F0.31856932414121997
aF0.7103170920411648
aa(lp90
F0.3300175491211585
aF0.7178858672448253
aa(lp91
F0.3372260401695703
aF0.7250844159396073
aa(lp92
F0.3219049004593736
aF0.7188485109207863
aa(lp93
F0.3172126427541559
aF0.736499719121114
aa(lp94
F0.3007154613618517
aF0.7389040374405895
aa(lp95
F0.30962087254022214
aF0.7662680881347913
aa(lp96
F0.31508207822766704
aF0.775516861999664
aa(lp97
F0.31751687804954837
aF0.7923668022001205
aa(lp98
F0.3059541249290358
aF0.7987841959080059
aa(lp99
F0.3055003767368723
aF0.7658615206010805
aa(lp100
F0.32221495193688876
aF0.7810921538758957
aa(lp101
F0.3211479515379405
aF0.7838155931887614
aa(lp102
F0.3251635395334783
aF0.7916207213614084
aa(lp103
F0.3453167485978779
aF0.8163042266787226
aa(lp104
F0.33770261443232513
aF0.8338135833545821
aa(lp105
F0.3441148582481632
aF0.8367317651188568
aa(lp106
F0.3558857513383141
aF0.8519552059871053
aa(lp107
F0.3452189306080424
aF0.8562888716950922
aa(lp108
F0.3425104531801392
aF0.8406768225032973
aa(lp109
F0.35232438542108296
aF0.8400467796307787
aa(lp110
F0.35120387368170375
aF0.8689101916665842
aa(lp111
F0.346345698616188
aF0.8375834464806584
aa(lp112
F0.3416794044154577
aF0.8625180607788269
aa(lp113
F0.35809586835648705
aF0.8881824179979672
aa(lp114
F0.3504117916828291
aF0.8739385514978455
aa(lp115
F0.3438486304399119
aF0.9041798402480495
aa(lp116
F0.3669357978668284
aF0.9104558789865195
aa(lp117
F0.3842485386068927
aF0.9049210266826643
aa(lp118
F0.39691972737256564
aF0.9137258569216462
aa(lp119
F0.3960760865397315
aF0.9032496286055892
aa(lp120
F0.4087951020484709
aF0.909867911155426
aa(lp121
F0.37303576119005505
aF0.9068578790920035
aa(lp122
F0.37331260846909886
aF0.8954953289486473
aa(lp123
F0.3571409097874883
aF0.8801279768385356
aa(lp124
F0.34594503459819437
aF0.8833620144286841
aa(lp125
F0.3617669935854833
aF0.8979647639628896
aa(lp126
F0.37349869384256357
aF0.898185903703302
aa(lp127
F0.40443504252740037
aF0.8930632263432927
aa(lp128
F0.41984080786619254
aF0.9062017481804189
aa(lp129
F0.3790045776168342
aF0.9112102314833019
aa(lp130
F0.3542374601894304
aF0.9194901386687852
aa(lp131
F0.3125965516205301
aF0.9332370044418794
aa(lp132
F0.32329475138245867
aF0.9321648565085429
aa(lp133
F0.345410544562905
aF0.9286994486439477
aa(lp134
F0.3508518991531304
aF0.8960513141426552
aa(lp135
F0.3395292482533956
aF0.881486600086633
aa(lp136
F0.3197513526913866
aF0.872234664889366
aa(lp137
F0.3235861039726656
aF0.8699349549277341
aa(lp138
F0.3307654133269348
aF0.8232661765982806
aa(lp139
F0.3285230781538719
aF0.8152959292892427
aa(lp140
F0.3286155721185277
aF0.7904838452076696
aa(lp141
F0.3316933973736491
aF0.8034621484855222
aa(lp142
F0.34565105220481085
aF0.7926223301279315
aa(lp143
F0.3553262843686923
aF0.7914833797440026
aa(lp144
F0.3707542865178746
aF0.8343572800051101
aa(lp145
F0.37748586185422917
aF0.8347702572205556
aa(lp146
F0.3748289114349852
aF0.8543055160606348
aa(lp147
F0.36325378332099423
aF0.8576028634641929
aa(lp148
F0.3312167759153271
aF0.871288835580969
aa(lp149
F0.31647898768380545
aF0.8488049575933772
aa(lp150
F0.30153131052397575
aF0.8404145834434743
aa(lp151
F0.299736271454532
aF0.8346368033422529
aa(lp152
F0.2867035434823455
aF0.8059285961188504
aa(lp153
F0.32550184866227316
aF0.806796590799683
aa(lp154
F0.307984220015005
aF0.8109733366384845
aa(lp155
F0.2825541023458884
aF0.8377803306009199
aa(lp156
F0.3022790086472238
aF0.804129418443083
aa(lp157
F0.2992452502600365
aF0.7917905623545022
aa(lp158
F0.32806865378291067
aF0.7980564033988524
aa(lp159
F0.31364586448219695
aF0.8095316701318948
aa(lp160
F0.29473556286273495
aF0.8285392390269835
aa(lp161
F0.32115340362705624
aF0.8030683690851959
aa(lp162
F0.3224937051691804
aF0.8266374912754514
aa(lp163
F0.3110650699450667
aF0.8118961891986309
aa(lp164
F0.328100992029293
aF0.7831428880770408
aa(lp165
F0.3236213125304514
aF0.7846653744767385
aa(lp166
F0.3372483402026726
aF0.7697708286104235
aa(lp167
F0.3138128230427225
aF0.7605276754026674
aa(lp168
F0.2864531737202121
aF0.7345757688162167
aa(lp169
F0.30325862091898337
aF0.7303141395165393
aa(lp170
F0.3118394852280454
aF0.741748717495447
aa(lp171
F0.3349409868640697
aF0.7712680858573707
aa(lp172
F0.3219612957556657
aF0.7680734625743688
aa(lp173
F0.2845016907881545
aF0.7500525503932229
aa(lp174
F0.2723794858315344
aF0.7495218308727226
aa(lp175
F0.27685191076588533
aF0.7279797407014659
aa(lp176
F0.2774986209218396
aF0.7095776582420563
aa(lp177
F0.27139881245365277
aF0.7108351671108645
aa(lp178
F0.24531656142124603
aF0.7381227580760064
aa(lp179
F0.23376300562286256
aF0.7433243441031869
aa(lp180
F0.23341437392157502
aF0.7502017689085686
aa(lp181
F0.2596468861431237
aF0.746147303063078
aa(lp182
F0.2659556064108133
aF0.7532339095733839
aa(lp183
F0.283188329231532
aF0.7367832816212281
aa(lp184
F0.27946955087358927
aF0.7624624737337737
aa(lp185
F0.2889222113229999
aF0.7762857604321299
aa(lp186
F0.2622939655920245
aF0.7885297976495471
aa(lp187
F0.25209173239036015
aF0.7858741075651074
aa(lp188
F0.27422466800528567
aF0.7818004113283354
aa(lp189
F0.29768346338469465
aF0.7712037195295062
aa(lp190
F0.2880887090655186
aF0.7582776303148627
aa(lp191
F0.2524654782568394
aF0.7475716270146935
aa(lp192
F0.24215640431468538
aF0.7184163442926261
aa(lp193
F0.22895147490072987
aF0.709700574292561
aa(lp194
F0.23484950508770167
aF0.6911098716105207
aa(lp195
F0.24338255419743393
aF0.7222373282682686
aa(lp196
F0.23362596541548006
aF0.7088060767002806
aa(lp197
F0.24207946540658884
aF0.7018603443347419
aa(lp198
F0.21473464801190056
aF0.6846807049302752
aa(lp199
F0.21646578858733
aF0.6870492560786259
aa(lp200
F0.22399731557659364
aF0.6578055259007327
aa(lp201
F0.19067467885539088
aF0.6383752452359859
aa(lp202
F0.20299667733542956
aF0.6357060377737215
aa(lp203
F0.19966309354611236
aF0.6117724771198078
aa(lp204
F0.188975590913113
aF0.6192522725199853
aa(lp205
F0.19735884622673244
aF0.5896630215983655
aa(lp206
F0.18756478390310688
aF0.5891818568358447
aa(lp207
F0.19810576802892801
aF0.618238496416094
aa(lp208
F0.2066257688737189
aF0.6340359597691718
aa(lp209
F0.20207473432496445
aF0.633846040285984
aa(lp210
F0.20618743843606896
aF0.6219196424205885
aa(lp211
F0.20884483541968782
aF0.6070031830464822
aa(lp212
F0.20013205721409688
aF0.5625969921862405
aa(lp213
F0.21703811261936454
aF0.5757290328372343
aa(lp214
F0.21134705372473347
aF0.5852203724842352
aa(lp215
F0.19205916774527707
aF0.6014930680948345
aa(lp216
F0.1887824046718134
aF0.5909881970384403
aa(lp217
F0.17412873705355444
aF0.5651001143870851
aa(lp218
F0.15385179974271615
aF0.5617517833498183
aa(lp219
F0.15176762261097765
aF0.5410466548847835
aa(lp220
F0.18067574849826185
aF0.5665172173876845
aa(lp221
F0.20841088731571114
aF0.5553048742833875
aa(lp222
F0.20828139794897052
aF0.544995328795904
aa(lp223
F0.18650723290166724
aF0.5266322750558909
aa(lp224
F0.17899842054865264
aF0.5164345611770216
aa(lp225
F0.16481578980002243
aF0.5235912517357927
aa(lp226
F0.16801235043099927
aF0.5165538944050716
aa(lp227
F0.13532466482720898
aF0.5056656556791552
aa(lp228
F0.16992122363802037
aF0.5050757553187393
aa(lp229
F0.18046283984840808
aF0.4907282919104198
aa(lp230
F0.19258183754086064
aF0.5095624735083893
aa(lp231
F0.18100465904726631
aF0.5160927162970304
aa(lp232
F0.15667681235187944
aF0.5235165520280133
aa(lp233
F0.14737183624719968
aF0.4875541042987121
aa(lp234
F0.17592181534854479
aF0.46741019266052863
aa(lp235
F0.13809911677734316
aF0.4769319270473699
aa(lp236
F0.14309354826734158
aF0.4604827104734045
aa(lp237
F0.15220243806349074
aF0.4593971028984989
aa(lp238
F0.16752911961620148
aF0.47287023921751287
aa(lp239
F0.14821975133441487
aF0.4716897599192527
aa(lp240
F0.1326233135217196
aF0.4564637993780707
aa(lp241
F0.11602834574298837
aF0.41960072342605526
aa(lp242
F0.11844516057469354
aF0.4314188121736732
aa(lp243
F0.1327350382440546
aF0.4352356866262651
aa(lp244
F0.1315048872368097
aF0.45067943170821445
aa(lp245
F0.12751536055589419
aF0.4807431835366437
aa(lp246
F0.11894701423008866
aF0.43697386702503316
aa(lp247
F0.11930252128141516
aF0.4583005930651424
aa(lp248
F0.1005667466705674
aF0.48250024583090134
aa(lp249
F0.09371484961226173
aF0.45884315341560317
aa(lp250
F0.0920237035847251
aF0.4716037546936102
aa(lp251
F0.1133031917628371
aF0.4361673092275523
aa(lp252
F0.09445060672980139
aF0.39794050781264223
aa(lp253
F0.07162445344601397
aF0.38894063570716575
aa(lp254
F0.07741543745615634
aF0.40340453537484966
aa(lp255
F0.09191872815100148
aF0.3821386651058589
aa(lp256
F0.06298483624233953
aF0.3748136259914877
aa(lp257
F0.0609252069950612
aF0.37050601760087176
aa(lp258
F0.035493840671562575
aF0.3757191952575066
aa(lp259
F0.052933994842027085
aF0.3958149322899774
aa(lp260
F0.07954703702832926
aF0.40122817438720015
aa(lp261
F0.056734551819205184
aF0.4161639786093969
aa(lp262
F0.061844041526273416
aF0.39754365314001905
aa(lp263
F0.06437487347976412
aF0.409103102905544
aa(lp264
F0.0727455736833691
aF0.3814392997317682
aa(lp265
F0.07691618940375196
aF0.3451247909454358
aa(lp266
F0.08833513551075564
aF0.33597252370715847
aa(lp267
F0.0757076224195623
aF0.3251809403597324
aa(lp268
F0.08095790908753486
aF0.33783389951172976
aa(lp269
F0.04564158226223715
aF0.3855128053392876
aa(lp270
F0.015320688656980247
aF0.39935487483452503
aa(lp271
F0.054779588517563725
aF0.4070539973401253
aa(lp272
F0.06816355907363107
aF0.4253158379448568
aa(lp273
F0.08334003545229489
aF0.41144104368188605
aa(lp274
F0.11928794432036707
aF0.4089268532217643
aa(lp275
F0.10255391207928496
aF0.406975626900468
aa(lp276
F0.10614973886340917
aF0.4393065530557996
aa(lp277
F0.10541057256808563
aF0.45590954469450723
aa(lp278
F0.10961529763948583
aF0.4685771502045258
aa(lp279
F0.08818964927859675
aF0.5019289734134508
aa(lp280
F0.11001108127243565
aF0.5161243282344653
aa(lp281
F0.11656974953917369
aF0.5012831056866749
aa(lp282
F0.11489131285193191
aF0.49938238966293386
aa(lp283
F0.12131558085496204
aF0.5100621605052734
aa(lp284
F0.1433236047685122
aF0.5126341722026809
aa(lp285
F0.14481853576526652
aF0.5035887792466367
aa(lp286
F0.12486963643015592
aF0.504274661420698
aa(lp287
F0.13041607431773253
aF0.500945487904522
aa(lp288
F0.13641247789184682
aF0.5043151082659264
aa(lp289
F0.15866926883434354
aF0.5271708263441545
aa(lp290
F0.1731784470980859
aF0.5465084136632437
aa(lp291
F0.19409571094346678
aF0.5158477480284852
aa(lp292
F0.16962408607640173
aF0.5080445070362624
aa(lp293
F0.17852708522257796
aF0.5326761518746982
aa(lp294
F0.18980441055258757
aF0.5512841466126277
aa(lp295
F0.18806890526567102
aF0.5583014503123166
aa(lp296
F0.1887379010021271
aF0.5872278883524158
aa(lp297
F0.1723249115234862
aF0.6049024996492544
aa(lp298
F0.16730084320316402
aF0.6255682398992006
aa(lp299
F0.17984281490557186
aF0.6499214419658759
aa(lp300
F0.16561172289716386
aF0.678537883934198
aa(lp301
F0.16762343599767318
aF0.6887059733236386
aa(lp302
F0.16586896877703147
aF0.6807875816933944
aa(lp303
F0.15565525164799948
aF0.6577365736220766
aa(lp304
F0.17499997091517694
aF0.6754889119609462
aa(lp305
F0.19733532571876602
aF0.6600974094028507
aa(lp306
F0.199954729456923
aF0.6417005233604475
aa(lp307
F0.22507440641181353
aF0.6623271943368007
aa(lp308
F0.24875201041923156
aF0.6488735824617979
aa(lp309
F0.23706769747936363
aF0.6372491043770129
aa(lp310
F0.185201814315283
aF0.5976157090213027
aa(lp311
F0.1437209660891435
aF0.5834679979739906
aa(lp312
F0.15459667049226622
aF0.5644303771140254
aa(lp313
F0.15318653137860244
aF0.558679355419181
aa(lp314
F0.12376217453065934
aF0.5536389246449035
aa(lp315
F0.14242804298178854
aF0.5619166004264611
aa(lp316
F0.15024936660890897
aF0.5467848881083516
aa(lp317
F0.14272747113812512
aF0.5598337236192544
aa(lp318
F0.14355699276581085
aF0.5353274499838371
aa(lp319
F0.1464378193828657
aF0.5602846128725641
aa(lp320
F0.16959131698912494
aF0.5475559311720423
aa(lp321
F0.18057286082408697
aF0.5033820920625499
aa(lp322
F0.2112112839186431
aF0.5026583605747481
aa(lp323
F0.21228666583948694
aF0.51218683999054
aa(lp324
F0.20908144457445352
aF0.5316325119045864
aa(lp325
F0.2050908648415396
aF0.5311547197243314
aa(lp326
F0.2014391399391962
aF0.5318018791792948
aa(lp327
F0.23484720017753338
aF0.5517780160846155
aa(lp328
F0.22323603485122065
aF0.5399517065069876
aa(lp329
F0.23294756682032985
aF0.5587382276608892
aa(lp330
F0.23369056594239246
aF0.5664642590646685
aa(lp331
F0.21575237553868004
aF0.5539714840741932
aa(lp332
F0.21114210351806373
aF0.5793531903808135
aa(lp333
F0.1847673434642939
aF0.5455803596011368
aa(lp334
F0.22041099367935646
aF0.5564407117633189
aa(lp335
F0.25735924206059296
aF0.5855254639627606
aa(lp336
F0.2602949426193762
aF0.6081571224396745
aa(lp337
F0.24174661320514879
aF0.612280196314884
aa(lp338
F0.25492791811250093
aF0.6418701107692806
aa(lp339
F0.22196664139368866
aF0.6378256749876785
aa(lp340
F0.23827692683684837
aF0.655618978427272
aa(lp341
F0.23323337287430054
aF0.6473249983924562
aa(lp342
F0.20978950572369284
aF0.6227734126081941
aa(lp343
F0.17741492711018583
aF0.6117812884737596
aa(lp344
F0.18881802995209185
aF0.6146352103201395
aa(lp345
F0.20577317003092183
aF0.6383899807050731
aa(lp346
F0.22800398398914948
aF0.6331011949347088
aa(lp347
F0.2197204966393534
aF0.6409188385756339
aa(lp348
F0.18743105005166488
aF0.61977687746178
aa(lp349
F0.1693797508512544
aF0.625062708449633
aa(lp350
F0.15559165039047915
aF0.6057897683166811
aa(lp351
F0.1553505880499207
aF0.6056986375751903
aa(lp352
F0.16173968134333871
aF0.6047129112383091
aa(lp353
F0.152937736354345
aF0.5780167068874514
aa(lp354
F0.18897223853221345
aF0.598360791432707
aa(lp355
F0.20174878266384805
aF0.5985566823034947
aa(lp356
F0.18652950649876604
aF0.6021562248231763
aa(lp357
F0.19433622874123854
aF0.6170934977561471
aa(lp358
F0.21284671949484407
aF0.6235371926821913
aa(lp359
F0.20097043464352382
aF0.6280257790372908
aa(lp360
F0.18797873063654127
aF0.6528588130727611
aa(lp361
F0.20722029693568778
aF0.6408537818187625
aa(lp362
F0.21936598258831544
aF0.6391279085567634
aa(lp363
F0.21420908272216332
aF0.6168855116675206
aa(lp364
F0.20913852135730737
aF0.6222830708139657
aa(lp365
F0.24052431015725315
aF0.5952579604893016
aa(lp366
F0.23997258795383586
aF0.622555318541745
aa(lp367
F0.24736611177373988
aF0.6437673258365261
aa(lp368
F0.21075159457461032
aF0.6280152061385083
aa(lp369
F0.18725829798230398
aF0.6274321967356207
aa(lp370
F0.17804192374679229
aF0.6343420442371909
aa(lp371
F0.16157589547971446
aF0.6166018944976914
aa(lp372
F0.1739131377523992
aF0.6366830980568277
aa(lp373
F0.18242480588607388
aF0.6378874240748459
aa(lp374
F0.16811999746307127
aF0.6565615655653402
aa(lp375
F0.16397521141474958
aF0.6145750048889173
aa(lp376
F0.20348813061852583
aF0.6025042625805769
aa(lp377
F0.2045021898331837
aF0.6369876933486334
aa(lp378
F0.23955174537596857
aF0.6565783803260914
aa(lp379
F0.22804179895447058
aF0.6478687912014421
aa(lp380
F0.20376283823092545
aF0.6352739476413901
aa(lp381
F0.20642953325943633
aF0.6505510976835405
aa(lp382
F0.22625847221106887
aF0.6701599198288243
aa(lp383
F0.23711075686996883
aF0.6642460990964478
aa(lp384
F0.22946467878497523
aF0.6569810927091662
aa(lp385
F0.21537102067682853
aF0.6835198047462747
aa(lp386
F0.25459601317153746
aF0.678409319926833
aa(lp387
F0.2391368060292825
aF0.6893154228479306
aa(lp388
F0.2586152833234274
aF0.6933589800780593
aa(lp389
F0.28269265000585647
aF0.72026568709594
aa(lp390
F0.3100050111434922
aF0.7453326032705254
aa(lp391
F0.3124804804335515
aF0.7458617196705719
aa(lp392
F0.3111312587629815
aF0.7594182286322049
aa(lp393
F0.32453873752305196
aF0.7663956243735063
aa(lp394
F0.2910720338960947
aF0.7588023813527248
aa(lp395
F0.29109368224870963
aF0.7620610192016591
aa(lp396
F0.2970071097979461
aF0.783503537218228
aa(lp397
F0.2872195599853106
aF0.8058322139429427
aa(lp398
F0.31434906272708363
aF0.8401279967373008
aa(lp399
F0.313262678206932
aF0.8345963728713015
aa(lp400
F0.3036519276303563
aF0.8284325461669879
aa(lp401
F0.33154446080933836
aF0.8689811713016017
aa(lp402
F0.35199011230087307
aF0.8946447231952834
aa(lp403
F0.3526941666936777
aF0.8914179575483007
aa(lp404
F0.3524244534955716
aF0.8965933712593919
aa(lp405
F0.36231558979854084
aF0.8708627829891409
aa(lp406
F0.3459684865312886
aF0.8741872323158933
aa(lp407
F0.3493182132472028
aF0.8963349688020799
aa(lp408
F0.3530004091123732
aF0.8911892923364113
aa(lp409
F0.3751166589996061
aF0.8833716135672451
aa(lp410
F0.3601805071914734
aF0.9167903600808601
aa(lp411
F0.34680043101060254
aF0.9041859972871479
aa(lp412
F0.33801858168222465
aF0.8873947542675478
aa(lp413
F0.3343479783182206
aF0.8704084707878069
aa(lp414
F0.3276208793584863
aF0.8394899277644127
aa(lp415
F0.28028657328712875
aF0.839270250613325
aa(lp416
F0.3230576857830027
aF0.8521872028939808
aa(lp417
F0.3237277666595107
aF0.8521064250437487
aa(lp418
F0.3332580732609989
aF0.825658391409898
aa(lp419
F0.3315912910459002
aF0.7895100190739134
aa(lp420
F0.3209222482584437
aF0.7428059908729683
aa(lp421
F0.28512294320881604
aF0.7360929427581515
aa(lp422
F0.26304435997821357
aF0.7687199693961971
aa(lp423
F0.26407539860591867
aF0.7784060492240383
aa(lp424
F0.3146763721881078
aF0.7843491883966504
aa(lp425
F0.35551441812052087
aF0.8144394297815855
aa(lp426
F0.3273705695721346
aF0.7760093862069234
aa(lp427
F0.32340173048337534
aF0.7821401741317069
aa(lp428
F0.30557243454725014
aF0.7897461168338732
aa(lp429
F0.2891273085509557
aF0.7886184849025224
aa(lp430
F0.3400232786840997
aF0.8078738356476585
aa(lp431
F0.36632488716324124
aF0.8337436256106552
aa(lp432
F0.3692267936754806
aF0.8354919042746211
aa(lp433
F0.3627981329567473
aF0.8126414601878374
aa(lp434
F0.36014085459601675
aF0.7946536207229075
aa(lp435
F0.3475486633206465
aF0.8111401577609401
aa(lp436
F0.3266702012832496
aF0.8132816044837371
aa(lp437
F0.3324241154384413
aF0.8090231851294923
aa(lp438
F0.34580812702217856
aF0.8347240130755422
aa(lp439
F0.34375980459396055
aF0.8112477930357367
aa(lp440
F0.31782354773449845
aF0.8322078836655574
aa(lp441
F0.32637053531134674
aF0.866710767049958
aa(lp442
F0.31872932853110875
aF0.8748385671111824
aa(lp443
F0.3138612895446005
aF0.8410392078540331
aa(lp444
F0.30542724474190786
aF0.8458477729979036
aa(lp445
F0.30341352894374146
aF0.8192773937881478
aa(lp446
F0.2990286657843733
aF0.8043244119155117
aa(lp447
F0.29943673234143925
aF0.8240587669039228
aa(lp448
F0.3140439662228893
aF0.8253476438548148
aa(lp449
F0.32514122959011776
aF0.8029919204588762
aa(lp450
F0.32668559165470473
aF0.793544057150874
aa(lp451
F0.32047300233868103
aF0.7908867102369685
aa(lp452
F0.3212305762574686
aF0.8156098068992501
aa(lp453
F0.3184468342719454
aF0.8049287151576071
aa(lp454
F0.3260462753757853
aF0.7959829720073288
aa(lp455
F0.3262232151692579
aF0.7962198718061688
aa(lp456
F0.3450453755364065
aF0.7882362063715527
aa(lp457
F0.35238298220473735
aF0.823418288338183
aa(lp458
F0.34302595020120463
aF0.78402827950988
aa(lp459
F0.32465490008470116
aF0.751636963156759
aa(lp460
F0.3345411669999511
aF0.7484782724127625
aa(lp461
F0.3079806000403414
aF0.7516066946427653
aa(lp462
F0.30002187440619205
aF0.7645434056213815
aa(lp463
F0.29060294723986424
aF0.7495609823559075
aa(lp464
F0.2977083195772837
aF0.7354748826569781
aa(lp465
F0.2710525311779822
aF0.6991553778588117
aa(lp466
F0.27150991953801495
aF0.7162665123294547
aa(lp467
F0.2820291068746105
aF0.6920120282434471
aa(lp468
F0.2952105389643011
aF0.6936038546737712
aa(lp469
F0.27293176059824403
aF0.6899850795154974
aa(lp470
F0.24712069987869895
aF0.7084638109607017
aa(lp471
F0.22540312732599238
aF0.7106509977501501
aa(lp472
F0.21764324522532846
aF0.6820968562822379
aa(lp473
F0.21234632866405292
aF0.6386834313277494
aa(lp474
F0.2315828482239238
aF0.6383812751791941
aa(lp475
F0.22693354932144574
aF0.6489958533845731
aa(lp476
F0.2120821599212876
aF0.6581982607406454
aa(lp477
F0.20582362299585677
aF0.6562741966970314
aa(lp478
F0.21664166267676618
aF0.658943274684078
aa(lp479
F0.2065979276847062
aF0.6811973539247894
aa(lp480
F0.20379009043871624
aF0.6958442362970007
aa(lp481
F0.19165151720909504
aF0.6973288016066914
aa(lp482
F0.1815821866104546
aF0.681232729767532
aa(lp483
F0.18930889581208538
aF0.654759090101784
aa(lp484
F0.21233044784149852
aF0.6825551787559275
aa(lp485
F0.244437921129404
aF0.7128719806396239
aa(lp486
F0.23019606112207566
aF0.6872705050671477
aa(lp487
F0.23257587336466257
aF0.7041855236133433
aa(lp488
F0.2264251634439039
aF0.6845201122891069
aa(lp489
F0.21594354784313752
aF0.7150987156124564
aa(lp490
F0.21311701236763964
aF0.7022476922294959
aa(lp491
F0.21531034061498913
aF0.6878975163339649
aa(lp492
F0.22642488788635734
aF0.6915102913574791
aa(lp493
F0.2417633993188393
aF0.6874049559038138
aa(lp494
F0.24964904974429372
aF0.6743860583167928
aa(lp495
F0.2231159724750838
aF0.6604891796640504
aa(lp496
F0.24989593378646702
aF0.683203746059754
aa(lp497
F0.2328946975866444
aF0.6810709461416126
aa(lp498
F0.22167903085579338
aF0.6872557217196725
aa(lp499
F0.22936892823530478
aF0.695422046670651
aa(lp500
F0.2612872707407088
aF0.6642132738233535
aa(lp501
F0.23196555552528003
aF0.6245885500032269
aa(lp502
F0.23294491188715855
aF0.6562916133823504
aa(lp503
F0.24868542208001426
aF0.6993212146923174
aa(lp504
F0.28004595204749605
aF0.7104652161664364
aa(lp505
F0.31056841277112
aF0.7467205245552538
aa(lp506
F0.2935741032071511
aF0.74503058322142
aa(lp507
F0.30732045633802013
aF0.767036562024863
aa(lp508
F0.3224517482945718
aF0.763296095347087
aa(lp509
F0.32721380841569625
aF0.788736003546988
aa(lp510
F0.324055098220513
aF0.7959071115510371
aa(lp511
F0.3252406865475373
aF0.8121679694692002
aa(lp512
F0.32802099650996225
aF0.8330027474126572
aa(lp513
F0.3450001036783208
aF0.8389589857548497
aa(lp514
F0.3472930752681699
aF0.8041773509884573
aa(lp515
F0.3602385932515326
aF0.8195322755493486
aa(lp516
F0.37268640296893946
aF0.8444675122210411
aa(lp517
F0.3936635892698069
aF0.8392046379253798
aa(lp518
F0.4014288762490441
aF0.8453781805336503
aa(lp519
F0.37444589488682006
aF0.875656904589903
aa(lp520
F0.35825249452061353
aF0.8962746847326912
aa(lp521
F0.3656374044571729
aF0.9068528990167667
aa(lp522
F0.3439904812006281
aF0.8708653855870017
aa(lp523
F0.3711789914896149
aF0.8854407180933913
aa(lp524
F0.39509682048198297
aF0.9000517951403684
aa(lp525
F0.37296471908205653
aF0.9181525811803886
aa(lp526
F0.39751509363521803
aF0.914982455245963
aa(lp527
F0.3874696024288567
aF0.8704772937413426
aa(lp528
F0.41517028625092495
aF0.891320465027856
aa(lp529
F0.40091628585184275
aF0.8924529120529194
aa(lp530
F0.37291737856417506
aF0.8525511606197909
aa(lp531
F0.38590055907989224
aF0.8572203041487291
aa(lp532
F0.351789632977457
aF0.8250256867792665
aa(lp533
F0.351040468755357
aF0.8186237142492582
aa(lp534
F0.34895545234037995
aF0.8478955854436352
aa(lp535
F0.3453242437816904
aF0.8471282611323044
aa(lp536
F0.29828431369366454
aF0.8331184362087033
aa(lp537
F0.30898522974727916
aF0.835945052521516
aa(lp538
F0.3269483499444996
aF0.8302856050464409
aa(lp539
F0.34072939906021926
aF0.850484088214435
aa(lp540
F0.336361924390294
aF0.8200809078625365
aa(lp541
F0.316450071240177
aF0.7778462409215399
aa(lp542
F0.3377772453143475
aF0.7778051134738412
aa(lp543
F0.34961757106600505
aF0.7734380414396035
aa(lp544
F0.3265622532346621
aF0.7323353609796994
aa(lp545
F0.31770154193510536
aF0.7287398840217231
aa(lp546
F0.3040206213169848
aF0.7091866301310742
aa(lp547
F0.2830589961283228
aF0.69573043196889
aa(lp548
F0.2737633742054973
aF0.6946257682927227
aa(lp549
F0.289600749424181
aF0.6881801264147587
aa(lp550
F0.2629599948878645
aF0.6744111615969279
aa(lp551
F0.26276145820280405
aF0.6609290443760303
aa(lp552
F0.2535270139179584
aF0.6316705171054252
aa(lp553
F0.2647337877424404
aF0.637433216492936
aa(lp554
F0.2626518722991468
aF0.6555946919210386
aa(lp555
F0.2753560456000652
aF0.6563188417620431
aa(lp556
F0.26471386474154057
aF0.645870971888035
aa(lp557
F0.21276655289466925
aF0.6642770717627882
aa(lp558
F0.1931372206830858
aF0.6884074775431013
aa(lp559
F0.17536634596677864
aF0.6814878260033881
aa(lp560
F0.1837821094438869
aF0.666722973006969
aa(lp561
F0.20295334836554324
aF0.6578300766929207
aa(lp562
F0.20356565137265667
aF0.6336636602069095
aa(lp563
F0.18719569181746412
aF0.6185570735658388
aa(lp564
F0.17843735200494493
aF0.5818679905868055
aa(lp565
F0.19340676158534875
aF0.561642328277169
aa(lp566
F0.1821575158604051
aF0.5425780725047489
aa(lp567
F0.16268904595133563
aF0.5450462702624836
aa(lp568
F0.1681416973088778
aF0.5781375776663091
aa(lp569
F0.1446242641785576
aF0.5804812255907983
aa(lp570
F0.16112670826352524
aF0.590111701869484
aa(lp571
F0.13507918136778196
aF0.5921344535852457
aa(lp572
F0.1370162674073652
aF0.5973312989533903
aa(lp573
F0.12773179501773949
aF0.5726456741364845
aa(lp574
F0.11637024660125281
aF0.5471874824887175
aa(lp575
F0.1498944908607524
aF0.5625925339456218
aa(lp576
F0.1257487452557747
aF0.5623024147753981
aa(lp577
F0.12190193144921817
aF0.5421412486648307
aa(lp578
F0.12348581726098017
aF0.5647690375575865
aa(lp579
F0.15508808942099866
aF0.6112504243401908
aa(lp580
F0.15369849184939088
aF0.5880464074316116
aa(lp581
F0.17819466274745832
aF0.6049635570303795
aa(lp582
F0.2229690669570359
aF0.5909226722009526
aa(lp583
F0.22704404913222703
aF0.6200956962191144
aa(lp584
F0.20186970855005135
aF0.5906000360112521
aa(lp585
F0.21313165360336783
aF0.6059957549764503
aa(lp586
F0.18966371694749695
aF0.5911926280439683
aa(lp587
F0.18740871088989688
aF0.5821637277514031
aa(lp588
F0.18650223092004375
aF0.5783518948881334
aa(lp589
F0.1571783353808019
aF0.5753665837661812
aa(lp590
F0.17411350167392417
aF0.5499465475381068
aa(lp591
F0.17625258315868864
aF0.5442901380890403
aa(lp592
F0.184046182628607
aF0.5531763444395291
aa(lp593
F0.16625538456787028
aF0.5429282325358457
aa(lp594
F0.20722080849763086
aF0.5496090887475822
aa(lp595
F0.2036420973003037
aF0.5606281419741561
aa(lp596
F0.1928789311399597
aF0.5665658543697586
aa(lp597
F0.16481603681592336
aF0.5709350254267399
aa(lp598
F0.14773313079004946
aF0.5981523707116596
aa(lp599
F0.1627608917680842
aF0.5771494917082775
aa(lp600
F0.14025570747447863
aF0.5833724218227434
aa(lp601
F0.10339985304030092
aF0.5829520920448287
aa(lp602
F0.1189576976391837
aF0.5905079974979838
aa(lp603
F0.119197563371824
aF0.6104422509997318
aa(lp604
F0.1180125387293381
aF0.5991822155872718
aa(lp605
F0.11473005243461933
aF0.5874067770076009
aa(lp606
F0.0864490594558078
aF0.5605583601342596
aa(lp607
F0.10503268899717225
aF0.5625712446549321
aa(lp608
F0.09073377692854413
aF0.5666202998637827
aa(lp609
F0.11627156515500556
aF0.5473813464808642
aa(lp610
F0.13753914194204164
aF0.5315347346545383
aa(lp611
F0.14138954153927283
aF0.5477348643425572
aa(lp612
F0.15937172402643293
aF0.5520253760428196
aa(lp613
F0.14909467569984913
aF0.5528592168569509
aa(lp614
F0.18145908747841377
aF0.5677028828215803
aa(lp615
F0.194113682621985
aF0.5674029542900961
aa(lp616
F0.19576005634372295
aF0.5635234586905015
aa(lp617
F0.17570207844133734
aF0.55931579155975
aa(lp618
F0.19518861897924156
aF0.5711557630676735
aa(lp619
F0.15348374449389363
aF0.5720643212380612
aa(lp620
F0.17450240509677187
aF0.598116320623821
aa(lp621
F0.18372402059195816
aF0.6061987284886605
aa(lp622
F0.1724390113719404
aF0.604534597059738
aa(lp623
F0.1924792336685468
aF0.6016192699117788
aa(lp624
F0.20401925599300136
aF0.6042356692144764
aa(lp625
F0.20291638893761052
aF0.5981430808271457
aa(lp626
F0.21670337869015038
aF0.6096863126159358
aa(lp627
F0.19323623257175013
aF0.604828945215463
aa(lp628
F0.20336648069128002
aF0.611253421898204
aa(lp629
F0.20785634529207458
aF0.581430437778335
aa(lp630
F0.2191614457300807
aF0.5748721245999742
aa(lp631
F0.21193832692933257
aF0.587107586729283
aa(lp632
F0.20101900608923434
aF0.5820449195479123
aa(lp633
F0.2229984011051839
aF0.5964315625518477
aa(lp634
F0.18655638359309518
aF0.5847068013645429
aa(lp635
F0.20544050646397036
aF0.6164166590160264
aa(lp636
F0.20975908034415958
aF0.6209647760480663
aa(lp637
F0.2249497889166978
aF0.6373751887286154
aa(lp638
F0.22289694049669903
aF0.6120525372575238
aa(lp639
F0.22934521225264234
aF0.6147465150098764
aa(lp640
F0.22176403166035502
aF0.6479676703575639
aa(lp641
F0.21928486731912217
aF0.661497477322756
aa(lp642
F0.23650968881349724
aF0.6900727088063531
aa(lp643
F0.24308320287276913
aF0.6678745526300908
aa(lp644
F0.2749021334977748
aF0.6684172284472276
aa(lp645
F0.25192060115124193
aF0.673258529299157
aa(lp646
F0.21150071204387297
aF0.6905275241047304
aa(lp647
F0.20069311790240874
aF0.693099046350927
aa(lp648
F0.18168739065247141
aF0.6836328622529041
aa(lp649
F0.1801324928045033
aF0.6783883061698219
aa(lp650
F0.18969628731116084
aF0.6681465062590393
aa(lp651
F0.19095042837378906
aF0.6796635169218915
aa(lp652
F0.2179847883474105
aF0.7019196842211521
aa(lp653
F0.21127381116574653
aF0.699788309790085
aa(lp654
F0.24061987250533687
aF0.6909104043816162
aa(lp655
F0.21723223161557922
aF0.6611555160501639
aa(lp656
F0.23014297854373938
aF0.6621969346125263
aa(lp657
F0.23881496098867178
aF0.6589997550310756
aa(lp658
F0.2654661404915818
aF0.6940231801426505
aa(lp659
F0.2593251033541713
aF0.7121091453561569
aa(lp660
F0.269913652710196
aF0.7209595215483543
aa(lp661
F0.2835704888289606
aF0.732575303090615
aa(lp662
F0.2875739767725233
aF0.747601793143199
aa(lp663
F0.2965696848746889
aF0.7376817806452963
aa(lp664
F0.28783522439901876
aF0.7497867488776785
aa(lp665
F0.2952158740914636
aF0.7525821149794186
aa(lp666
F0.2773719116789271
aF0.7511555431798831
aa(lp667
F0.2628660982433042
aF0.7618397016317142
aa(lp668
F0.27037655082428236
aF0.7505524658968473
aa(lp669
F0.2741967702476291
aF0.754920108332428
aa(lp670
F0.27524878016575705
aF0.7717774245384077
aa(lp671
F0.2657871083664084
aF0.773662262148403
aa(lp672
F0.2597217572396635
aF0.7696200734454034
aa(lp673
F0.26847933447014255
aF0.7996570267440037
aa(lp674
F0.2586624784544539
aF0.8068680527475661
aa(lp675
F0.2540944510726232
aF0.7950705655824143
aa(lp676
F0.27688987692412104
aF0.7883217850081321
aa(lp677
F0.2861242603770539
aF0.7807171448951921
aa(lp678
F0.2948778035273573
aF0.7590397266523735
aa(lp679
F0.2632152178715192
aF0.7587890544527952
aa(lp680
F0.2595992041221899
aF0.743682535479584
aa(lp681
F0.2653674109004217
aF0.7506034442534709
aa(lp682
F0.26605841067547675
aF0.7486932583110191
aa(lp683
F0.2921062368657227
aF0.737325876591969
aa(lp684
F0.3188551944051869
aF0.7580127642481326
aa(lp685
F0.31564512207311257
aF0.7525116622529415
aa(lp686
F0.30347564485971906
aF0.7574174372924443
aa(lp687
F0.3102457242750204
aF0.7507929904331614
aa(lp688
F0.30004636118682143
aF0.7361916894840722
aa(lp689
F0.3128908578435646
aF0.7491970994308468
aa(lp690
F0.31668408598875125
aF0.7428321736582969
aa(lp691
F0.3012791404836471
aF0.750426515382396
aa(lp692
F0.2986719134896395
aF0.7665928720381836
aa(lp693
F0.3001125749675124
aF0.7849976839083179
aa(lp694
F0.314941758195074
aF0.8028533083493994
aa(lp695
F0.29512531720316887
aF0.8232696937671453
aa(lp696
F0.29288563142225577
aF0.8233652246529443
aa(lp697
F0.31711083595418876
aF0.8123753628081385
aa(lp698
F0.32889375794135856
aF0.8063989295938929
aa(lp699
F0.3317626409748342
aF0.8123796901365646
aa(lp700
F0.3169500010908097
aF0.7789307971969868
aa(lp701
F0.3131925918098756
aF0.778833243163533
aa(lp702
F0.31469736910071994
aF0.7609506330443675
aa(lp703
F0.31601834716576094
aF0.737614452547451
aa(lp704
F0.3354518116625944
aF0.7479198123728812
aa(lp705
F0.3381895360793208
aF0.7872185173477085
aa(lp706
F0.32252936133869203
aF0.7757766837694118
aa(lp707
F0.351133201521227
aF0.7719422898349645
aa(lp708
F0.37122596031848265
aF0.7786276883388423
aa(lp709
F0.33451724526794224
aF0.7815966898906467
aa(lp710
F0.33066642635695576
aF0.7852598825158895
aa(lp711
F0.315834994405299
aF0.8031160351378887
aa(lp712
F0.31115726657172177
aF0.80614136454125
aa(lp713
F0.3301074181615475
aF0.8258694969319792
aa(lp714
F0.345375707324416
aF0.8453750941295141
aa(lp715
F0.3172323975162569
aF0.8025667477184129
aa(lp716
F0.2978271301020781
aF0.7975364303882282
aa(lp717
F0.28689539099445077
aF0.7684450008054243
aa(lp718
F0.26878792243961264
aF0.746187442881159
aa(lp719
F0.2663098478757899
aF0.7148051077824046
aa(lp720
F0.28466201472424235
aF0.7273214597615405
aa(lp721
F0.2816609787927613
aF0.7173166922133684
aa(lp722
F0.25886360155595844
aF0.7397180074794893
aa(lp723
F0.24716320352391297
aF0.7013560686913598
aa(lp724
F0.2512168324781355
aF0.7229933888479245
aa(lp725
F0.25059754532115974
aF0.7059492653922812
aa(lp726
F0.24053345318662187
aF0.6971734486653083
aa(lp727
F0.22968038348913752
aF0.6810980936359864
aa(lp728
F0.22594509208594402
aF0.6758574286696354
aa(lp729
F0.23089254636183332
aF0.6721068383397809
aa(lp730
F0.2517861892945066
aF0.6601983401370487
aa(lp731
F0.26464630484233526
aF0.6680609585505249
aa(lp732
F0.2781277719517296
aF0.6766054358609006
aa(lp733
F0.25434918749462104
aF0.7082110312186516
aa(lp734
F0.2504449727115066
aF0.7077925553201927
aa(lp735
F0.23768985499967127
aF0.6774014935716682
aa(lp736
F0.292555440321361
aF0.6908697045882506
aa(lp737
F0.27876312402904735
aF0.6945534111969461
aa(lp738
F0.2584555688390341
aF0.7249150867737372
aa(lp739
F0.2765077868549292
aF0.7184703164644797
aa(lp740
F0.2572768707172079
aF0.6955630884559144
aa(lp741
F0.26198941155493927
aF0.684478338798167
aa(lp742
F0.23919106140240448
aF0.6746218006729336
aa(lp743
F0.2508154352059402
aF0.6957016265775067
aa(lp744
F0.2187617541535764
aF0.685483901600684
aa(lp745
F0.21848929271539008
aF0.7095851097283954
aa(lp746
F0.23009832749054693
aF0.7171957418580667
aa(lp747
F0.2640008889261384
aF0.7313274595631998
aa(lp748
F0.26609475598373217
aF0.7403999924116045
aa(lp749
F0.2819795523065025
aF0.7391407482369358
aa(lp750
F0.28062870347036495
aF0.7304534610441338
aa(lp751
F0.2588331969212868
aF0.7507668085657683
aa(lp752
F0.2969323695942661
aF0.7776546003241743
aa(lp753
F0.30463698595713223
aF0.7650554423409321
aa(lp754
F0.28400494962401
aF0.7751004121146475
aa(lp755
F0.29046355457575446
aF0.7825016709748136
aa(lp756
F0.3089526594814074
aF0.7790720054589698
aa(lp757
F0.30230553025170676
aF0.752317219768836
aa(lp758
F0.3129727232407492
aF0.7574000209640649
aa(lp759
F0.28010892866174064
aF0.7691287460671196
aa(lp760
F0.27741347812106126
aF0.7858949270462625
aa(lp761
F0.288280111672426
aF0.806802917010789
aa(lp762
F0.2767496483071043
aF0.8094702344842531
aa(lp763
F0.2840404476336754
aF0.7805759371832921
aa(lp764
F0.2872678837413131
aF0.7928284566855425
aa(lp765
F0.2784441566367502
aF0.7861480007720395
aa(lp766
F0.280113770833526
aF0.8105010599841465
aa(lp767
F0.30220806461184324
aF0.8306160498009526
aa(lp768
F0.3153278576125899
aF0.8233947340514335
aa(lp769
F0.3411954590709784
aF0.8085344034507699
aa(lp770
F0.3753426276939118
aF0.8117130817367687
aa(lp771
F0.38802624661571256
aF0.8037163103118399
aa(lp772
F0.35693122631407087
aF0.8386889225633142
aa(lp773
F0.35232686827126436
aF0.858889497860563
aa(lp774
F0.35606050076571216
aF0.8305352686931511
aa(lp775
F0.3171776853701813
aF0.8450366882088699
aa(lp776
F0.32408110555068387
aF0.8263587030664548
aa(lp777
F0.30314239687244116
aF0.8275611617420024
aa(lp778
F0.3299821540912439
aF0.8639749600787847
aa(lp779
F0.3470138292572903
aF0.8540798366982087
aa(lp780
F0.3353342635598566
aF0.8254144865660362
aa(lp781
F0.34975953768145884
aF0.8484529393124531
aa(lp782
F0.3690568451977592
aF0.8802315341391808
aa(lp783
F0.37390953926253273
aF0.886660568665875
aa(lp784
F0.38234065888651114
aF0.8331805080224823
aa(lp785
F0.3617845334106165
aF0.8646131879645732
aa(lp786
F0.36140869070022263
aF0.8581361039327668
aa(lp787
F0.39560825490876317
aF0.8422390612009449
aa(lp788
F0.40723394498765214
aF0.8723747618648516
aa(lp789
F0.41809264453288514
aF0.8716778603441068
aa(lp790
F0.3966671755840231
aF0.889152038158569
aa(lp791
F0.35346068521665425
aF0.8809320139227185
aa(lp792
F0.3496269547787831
aF0.8529208446312031
aa(lp793
F0.364077785837383
aF0.8881109618236327
aa(lp794
F0.3610220280558931
aF0.9143698566940874
aa(lp795
F0.3692412828176568
aF0.9108057495509101
aa(lp796
F0.3612310400258361
aF0.9046839173506576
aa(lp797
F0.3413703205215228
aF0.8791673416386332
aa(lp798
F0.32820893317264466
aF0.8557179611113128
aa(lp799
F0.34309513340909065
aF0.8459038186304849
aa(lp800
F0.2941441412589283
aF0.8169571992148748
aa(lp801
F0.27192472628839237
aF0.8129026989529435
aa(lp802
F0.28872004161269804
aF0.8024957269445335
aa(lp803
F0.30886068743086187
aF0.8092219526858762
aa(lp804
F0.3168355738696983
aF0.8283780504543793
aa(lp805
F0.31273413901259567
aF0.8179418824964431
aa(lp806
F0.3407591700733165
aF0.8177555228667944
aa(lp807
F0.35192723984022894
aF0.8085065569976584
aa(lp808
F0.3247695891851466
aF0.8117007853831784
aa(lp809
F0.2984384158212598
aF0.7831351952247703
aa(lp810
F0.2979473429666512
aF0.7567081608485604
aa(lp811
F0.3259959417535233
aF0.7432570769610083
aa(lp812
F0.353192787948352
aF0.7225779753194991
aa(lp813
F0.338054976344394
aF0.721602232266977
aa(lp814
F0.32769382974362826
aF0.7355618048553925
aa(lp815
F0.30779045707065583
aF0.7310183206145906
aa(lp816
F0.3324923270953659
aF0.7387194214053046
aa(lp817
F0.31677028467916607
aF0.7446280294121415
aa(lp818
F0.31819894258825
aF0.7353864547579043
aa(lp819
F0.3325574811023314
aF0.7253732821601976
aa(lp820
F0.33408944657866857
aF0.7071108278213958
aa(lp821
F0.3030986584748121
aF0.7249510142814029
aa(lp822
F0.30628055144544675
aF0.7611203742823726
aa(lp823
F0.31110361003438003
aF0.7416611130038723
aa(lp824
F0.2971714043545384
aF0.7469747150477349
aa(lp825
F0.2956424315089144
aF0.7564512807325031
aa(lp826
F0.28168252570419366
aF0.7677852297702824
aa(lp827
F0.2881427222375778
aF0.7259390919377704
aa(lp828
F0.2974196564032463
aF0.7115003510445901
aa(lp829
F0.29246610719010313
aF0.7063408994288204
aa(lp830
F0.28992651677449544
aF0.7213760885954242
aa(lp831
F0.26286706575123586
aF0.7436108211237407
aa(lp832
F0.2507261606120628
aF0.7182301396217985
aa(lp833
F0.22766576968213292
aF0.7185738247740863
aa(lp834
F0.2402360578741363
aF0.73257618428573
aa(lp835
F0.2476912181888436
aF0.7481538338895818
aa(lp836
F0.22248522792468514
aF0.7466268576187857
aa(lp837
F0.20590378824643263
aF0.7450946120579706
aa(lp838
F0.20024683673744384
aF0.7359135874172091
aa(lp839
F0.21836163588350624
aF0.7419313253950627
aa(lp840
F0.22901174375990324
aF0.7513406469889221
aa(lp841
F0.22488365952713762
aF0.7395084707770068
aa(lp842
F0.20841136644630326
aF0.7466041786756632
aa(lp843
F0.2203328415014362
aF0.7535919219735666
aa(lp844
F0.2269060709119666
aF0.7538444671007085
aa(lp845
F0.21919635379012808
aF0.7434968252188492
aa(lp846
F0.23012516372051273
aF0.7369365334786061
aa(lp847
F0.24299549193414802
aF0.752539613131749
aa(lp848
F0.25453390176047674
aF0.7457000383703437
aa(lp849
F0.26171034559972284
aF0.742363146999805
aa(lp850
F0.2602089443350547
aF0.7535525453959241
aa(lp851
F0.2768976722297537
aF0.7378419379921917
aa(lp852
F0.2773137807625699
aF0.7486366531377138
aa(lp853
F0.25515470886892183
aF0.76181824730418
aa(lp854
F0.26578042799500395
aF0.754667674271725
aa(lp855
F0.28294856135345015
aF0.7396282910380116
aa(lp856
F0.29287073989589973
aF0.7738176982866101
aa(lp857
F0.28602224524434555
aF0.7785033348907884
aa(lp858
F0.269206801454681
aF0.7894148064625718
aa(lp859
F0.2994840811347502
aF0.733559499619917
aa(lp860
F0.281443116089383
aF0.7339544529870179
aa(lp861
F0.2753400672851287
aF0.7389631966590565
aa(lp862
F0.2788537205251645
aF0.7388732816256272
aa(lp863
F0.25476210695964135
aF0.6983944849677144
aa(lp864
F0.22038985195707222
aF0.7217170921455036
aa(lp865
F0.21465690082355865
aF0.6942582185059152
aa(lp866
F0.21852216349725015
aF0.6654808535294234
aa(lp867
F0.23033358301974527
aF0.6502802008991028
aa(lp868
F0.2329922225691477
aF0.6477633930605328
aa(lp869
F0.24695348407269002
aF0.643629274290766
aa(lp870
F0.22819026485026395
aF0.6418317137600357
aa(lp871
F0.23416101529826455
aF0.6458329075879934
aa(lp872
F0.20023433601282745
aF0.6547241425214743
aa(lp873
F0.21267064226365884
aF0.7016571065533332
aa(lp874
F0.19068370930600761
aF0.6657493941032894
aa(lp875
F0.2118954603149706
aF0.6440784553427497
aa(lp876
F0.22058497811700628
aF0.6628605181705264
aa(lp877
F0.20599898263183652
aF0.6605929461034782
aa(lp878
F0.2126967544765707
aF0.6359716379057969
aa(lp879
F0.21160087166860597
aF0.6400420258097304
aa(lp880
F0.1893203987471522
aF0.6413108319102566
aa(lp881
F0.21472167460773267
aF0.6464799591568309
aa(lp882
F0.22656600576113817
aF0.6329910487417707
aa(lp883
F0.23139880659247147
aF0.6389057749283539
aa(lp884
F0.23408224640244688
aF0.6402690880363937
aa(lp885
F0.22565747301577796
aF0.6425271721201594
aa(lp886
F0.22932837569575834
aF0.6714589210630009
aa(lp887
F0.23212426363099245
aF0.654662357860607
aa(lp888
F0.24979235836275687
aF0.6796733272371
aa(lp889
F0.23085610491458455
aF0.6431553559659777
aa(lp890
F0.24412389737631554
aF0.6385728082627925
aa(lp891
F0.26380979932397786
aF0.643728978545906
aa(lp892
F0.25150106525972926
aF0.6446358727832615
aa(lp893
F0.25482463500189684
aF0.6651327753561403
aa(lp894
F0.24139844866120866
aF0.6773307889938952
aa(lp895
F0.2136222168849223
aF0.664333059397625
aa(lp896
F0.22336580318878016
aF0.6636962828505047
aa(lp897
F0.23286848728268528
aF0.6684383450111864
aa(lp898
F0.2524165253715759
aF0.6715847478869742
aa(lp899
F0.2472193867862159
aF0.7178916844072029
aa(lp900
F0.2614871693935768
aF0.7082145708351242
aa(lp901
F0.2513475496254706
aF0.7409628021466933
aa(lp902
F0.22909552317905416
aF0.743218092516907
aa(lp903
F0.26307076081509506
aF0.7422828372487476
aa(lp904
F0.2568206502070188
aF0.7150431978374184
aa(lp905
F0.23639275700197604
aF0.7087649885189794
aa(lp906
F0.20013995127477743
aF0.6854179679133697
aa(lp907
F0.1993098075813414
aF0.6796648988845421
aa(lp908
F0.20410029745611705
aF0.6737137759337207
aa(lp909
F0.22695498925485524
aF0.6904091756073459
aa(lp910
F0.2169352650700368
aF0.7069758492823932
aa(lp911
F0.2349043427014589
aF0.6876162067202383
aa(lp912
F0.23031051500665867
aF0.6709458720752499
aa(lp913
F0.2669885683895966
aF0.6782236313409894
aa(lp914
F0.26504526840991177
aF0.6562667234587319
aa(lp915
F0.24227443953790342
aF0.6315196992105824
aa(lp916
F0.23145326091830906
aF0.6100673629749539
aa(lp917
F0.2385249429725121
aF0.6055073463939271
aa(lp918
F0.2004013057637173
aF0.5892966873504067
aa(lp919
F0.2121898113942685
aF0.5685566590669332
aa(lp920
F0.18135513802416656
aF0.5876572622982077
aa(lp921
F0.2046731482738724
aF0.6166611324416056
aa(lp922
F0.1745929334606886
aF0.6413791857783394
aa(lp923
F0.18513259367354168
aF0.6564984926444601
aa(lp924
F0.17102710300065324
aF0.633485734472145
aa(lp925
F0.15746817969086122
aF0.602033146650517
aa(lp926
F0.17292066283978638
aF0.6278654991963453
aa(lp927
F0.1730565181005887
aF0.6006406340640004
aa(lp928
F0.1711791425564173
aF0.6041439333398114
aa(lp929
F0.18553934887180468
aF0.6315290803257537
aa(lp930
F0.19416513785873074
aF0.6464006481718745
aa(lp931
F0.1955809451209786
aF0.663762846477701
aa(lp932
F0.20619358398228624
aF0.6663405905303127
aa(lp933
F0.219989398309283
aF0.69555474750189
aa(lp934
F0.22618785900824184
aF0.7077341146482313
aa(lp935
F0.22567849851261396
aF0.7204426187263238
aa(lp936
F0.22229967954899077
aF0.7218843909448276
aa(lp937
F0.2129192715715332
aF0.7103217925311054
aa(lp938
F0.24613252674564753
aF0.7092857529275587
aa(lp939
F0.2683952953253284
aF0.7326085674516218
aa(lp940
F0.2666288940341131
aF0.7159952651203286
aa(lp941
F0.286556593670145
aF0.7536145494405894
aa(lp942
F0.31528269471023607
aF0.7849346104870181
aa(lp943
F0.31697778797566156
aF0.7831926162649409
aa(lp944
F0.29689454247350977
aF0.7946894694167724
aa(lp945
F0.328948069610951
aF0.7783069823257549
aa(lp946
F0.29504750689511405
aF0.7484598739537711
aa(lp947
F0.2768426848211148
aF0.7391369343120776
aa(lp948
F0.2704331502465985
aF0.7572434180163011
aa(lp949
F0.25193184103976823
aF0.7635758733786775
aa(lp950
F0.2650793168520184
aF0.7697836784679575
aa(lp951
F0.300514320009852
aF0.7803941265480037
aa(lp952
F0.29383623344070736
aF0.7706491024424619
aa(lp953
F0.32568029434341256
aF0.7502823817172303
aa(lp954
F0.30494927715952674
aF0.7277349702780792
aa(lp955
F0.31755945905667715
aF0.7188401897299438
aa(lp956
F0.32365953454548385
aF0.7183958424787471
aa(lp957
F0.3412707406877283
aF0.7002213495532315
aa(lp958
F0.2978862775489391
aF0.6884064748402244
aa(lp959
F0.2889295252265609
aF0.7025933360816536
aa(lp960
F0.28318006565321996
aF0.7012614917871395
aa(lp961
F0.30143200270915654
aF0.6947059475238021
aa(lp962
F0.2848693985249568
aF0.6823697066874546
aa(lp963
F0.28803059679996895
aF0.669306812642181
aa(lp964
F0.3050526692708512
aF0.666843604832539
aa(lp965
F0.33048797489285825
aF0.6963541515997378
aa(lp966
F0.3001644662860448
aF0.7056567029683317
aa(lp967
F0.29816259395686306
aF0.7315443304484346
aa(lp968
F0.27477386792808145
aF0.7197340441004986
aa(lp969
F0.27041116538513404
aF0.7195738715575244
aa(lp970
F0.24651861096238792
aF0.6934927600862649
aa(lp971
F0.26455521367363094
aF0.704967988741971
aa(lp972
F0.2618436022114536
aF0.6873136367779964
aa(lp973
F0.2816738952629008
aF0.7009858827022731
aa(lp974
F0.25535458752434714
aF0.6932913821977593
aa(lp975
F0.2571027458841814
aF0.7355084620962548
aa(lp976
F0.2404392358908446
aF0.7423769316160028
aa(lp977
F0.2654174515318339
aF0.7811838481650728
aa(lp978
F0.2514223468884183
aF0.7480843536383854
aa(lp979
F0.2680457341568867
aF0.7318408240173584
aa(lp980
F0.2851989270078299
aF0.7607660796361115
aa(lp981
F0.2832771117867277
aF0.7999465900940315
aa(lp982
F0.28290338670710863
aF0.7967921199265782
aa(lp983
F0.3057595769159374
aF0.8026917951008674
aa(lp984
F0.3145369001889184
aF0.793691196703844
aa(lp985
F0.30664253227125743
aF0.7997785093091961
aa(lp986
F0.3138558797279707
aF0.8010391317903836
aa(lp987
F0.2791416366257647
aF0.773131835753478
aa(lp988
F0.26119875350568295
aF0.7787072929620634
aa(lp989
F0.3139361224220982
aF0.7792440296621781
aa(lp990
F0.28288674383598844
aF0.764943225571739
aa(lp991
F0.3006229687251732
aF0.7722351083936877
aa(lp992
F0.27977820579676826
aF0.763999163762849
aa(lp993
F0.2730617326058251
aF0.7664165557127669
aa(lp994
F0.29213027562890725
aF0.7514960906785725
aa(lp995
F0.29116763166282017
aF0.7586484905575677
aa(lp996
F0.31242743960876496
aF0.7590410411903886
aa(lp997
F0.31478035414193034
aF0.7665660091062512
aa(lp998
F0.3260058689583404
aF0.776247611440447
aa(lp999
F0.3336664021432372
aF0.7947579749055447
aa(lp1000
F0.31804759987762454
aF0.7833039566581459
aa(lp1001
F0.331442885101905
aF0.7693937644123209
aa(lp1002
F0.34276828282368454
aF0.7614774581432707
aa(lp1003
F0.33639779780090656
aF0.7732102429947318
aa(lp1004
F0.3301037870414118
aF0.7491149636808387
aa(lp1005
F0.31129409059455343
aF0.7216921722806813
aa(lp1006
F0.30307300891977473
aF0.7228976604939427
aa(lp1007
F0.32135046471268236
aF0.6887846625359728
aa(lp1008
F0.3175725748278631
aF0.6865342390138139
aa(lp1009
F0.34300694484453886
aF0.7008813590147944
aa(lp1010
F0.3299862137613455
aF0.6893558643359312
aa(lp1011
F0.2969154925687545
aF0.6892289877838322
aa(lp1012
F0.30102243368909903
aF0.689164295421405
aa(lp1013
F0.30656910446690955
aF0.7001599099702467
aa(lp1014
F0.2950830218406491
aF0.6973261977028894
aa(lp1015
F0.3143095674687886
aF0.7133929866006045
aa(lp1016
F0.30590211639694825
aF0.7701083381954758
aa(lp1017
F0.3105879996356499
aF0.8096586230059535
aa(lp1018
F0.32883850280436755
aF0.7762015445777402
aa(lp1019
F0.33713015934740403
aF0.7921067674681862
aa(lp1020
F0.3220353466485493
aF0.798592323751303
aa(lp1021
F0.3200688784004937
aF0.7882443164344395
aa(lp1022
F0.3126618306448637
aF0.7742811230962853
aa(lp1023
F0.3035545735327976
aF0.7855611882559443
aa(lp1024
F0.3097909732612698
aF0.7808641923285323
aa(lp1025
F0.34448368465495754
aF0.8062455316674384
aa(lp1026
F0.3690528339247372
aF0.822061482302524
aa(lp1027
F0.35991642651004513
aF0.8103242306587392
aa(lp1028
F0.3427604496668228
aF0.7897184051734288
aa(lp1029
F0.33847496188810855
aF0.821126397940439
aa(lp1030
F0.3493945092075422
aF0.8500584772750102
aa(lp1031
F0.33894170235510857
aF0.8596343519695946
aa(lp1032
F0.3547843042166212
aF0.8695004513402658
aa(lp1033
F0.3632976757494989
aF0.8647847175161867
aa(lp1034
F0.35615171520876165
aF0.8559954361025183
aa(lp1035
F0.34536591644832326
aF0.8508760362658857
aa(lp1036
F0.3873416664148988
aF0.8385184788890129
aa(lp1037
F0.3898798898343251
aF0.8533708960529756
aa(lp1038
F0.3899263690269105
aF0.866086324858361
aa(lp1039
F0.38113653405748155
aF0.8953587965753312
aa(lp1040
F0.38016713668899516
aF0.9142860180875211
aa(lp1041
F0.3796170264541442
aF0.9136614259016792
aa(lp1042
F0.38949278526159725
aF0.8925248825653768
aa(lp1043
F0.3913305173818656
aF0.9035332952630256
aa(lp1044
F0.38641062559347256
aF0.9122058474451493
aa(lp1045
F0.3885036230741924
aF0.9224282321053323
aa(lp1046
F0.40107040681566886
aF0.9077543435278436
aa(lp1047
F0.38550854765842546
aF0.8988102317338192
aa(lp1048
F0.3943883825177986
aF0.8938200283685628
aa(lp1049
F0.37455991666324207
aF0.9018480345545776
aa(lp1050
F0.3591510927136376
aF0.9053538243724027
aa(lp1051
F0.3858446773240404
aF0.9177928681752004
aa(lp1052
F0.38022868308622804
aF0.89104756281198
aa(lp1053
F0.3741844662399909
aF0.8694094259349535
aa(lp1054
F0.3652521995479296
aF0.8375452489464654
aa(lp1055
F0.3603653253965092
aF0.8094186874937304
aa(lp1056
F0.3569143407245707
aF0.8175158380953181
aa(lp1057
F0.34890549215797056
aF0.7938499813708189
aa(lp1058
F0.33647805223177585
aF0.7836626057550292
aa(lp1059
F0.34646755233988885
aF0.79944055668008
aa(lp1060
F0.32249558582404886
aF0.8444913403514955
aa(lp1061
F0.31921536418096463
aF0.8209309175517333
aa(lp1062
F0.3235986141005576
aF0.8148921963173393
aa(lp1063
F0.3085689700008878
aF0.8089530815130159
aa(lp1064
F0.2986585608833202
aF0.7763569980931573
aa(lp1065
F0.2943423930397401
aF0.7944470808754551
aa(lp1066
F0.3245923063177641
aF0.7906090798544676
aa(lp1067
F0.3276121817792654
aF0.7735504043988036
aa(lp1068
F0.32800026511951696
aF0.8062241464701582
aa(lp1069
F0.32658639156646174
aF0.8217173636291948
aa(lp1070
F0.3405511344789981
aF0.8208508714607136
aa(lp1071
F0.3161713960082078
aF0.8194711065446495
aa(lp1072
F0.30943363525736706
aF0.8122717331402715
aa(lp1073
F0.30834445109413927
aF0.8418638974820623
aa(lp1074
F0.27899801765749765
aF0.8528853196899644
aa(lp1075
F0.2889202655439221
aF0.8596680079751201
aa(lp1076
F0.2564630900140102
aF0.8601196011420388
aa(lp1077
F0.23898673870015377
aF0.8395983947060633
aa(lp1078
F0.2160771610122105
aF0.8121826980827545
aa(lp1079
F0.25944989429442944
aF0.8302407940771329
aa(lp1080
F0.2695450037538828
aF0.8143506874993105
aa(lp1081
F0.2540165812520009
aF0.8240870597622924
aa(lp1082
F0.28206238575327275
aF0.8353238682369829
aa(lp1083
F0.29067197826557195
aF0.8303559606057542
aa(lp1084
F0.30296481943476733
aF0.8111348224015098
aa(lp1085
F0.30597595061537985
aF0.8254794150702156
aa(lp1086
F0.2991239298349601
aF0.8335856165907336
aa(lp1087
F0.31040076125926336
aF0.8521920696055107
aa(lp1088
F0.33096925416397943
aF0.8493950523489362
aa(lp1089
F0.3322593972848069
aF0.8640792993080307
aa(lp1090
F0.33466483936198754
aF0.8689058994093336
aa(lp1091
F0.353197174253529
aF0.8687974821750616
aa(lp1092
F0.3361647161533663
aF0.8619652756472607
aa(lp1093
F0.35251440245646437
aF0.8879581636616118
aa(lp1094
F0.33122701593879356
aF0.9177607916704275
aa(lp1095
F0.3511224614321372
aF0.879005930794172
aa(lp1096
F0.37990991207779923
aF0.8874476285138221
aa(lp1097
F0.3964323309631511
aF0.895076693419333
aa(lp1098
F0.3883360463192441
aF0.8775367003099594
aa(lp1099
F0.3741600435103664
aF0.8581803117476245
aa(lp1100
F0.3649425024660513
aF0.8673653828095568
aa(lp1101
F0.3690191632517632
aF0.8925488057234124
aa(lp1102
F0.35452875082134694
aF0.9125776790204176
aa(lp1103
F0.3763641524718501
aF0.9132091426793948
aa(lp1104
F0.4030596765287243
aF0.9287981309935044
aa(lp1105
F0.41736968724989765
aF0.9564101094594862
aa(lp1106
F0.43070767328239135
aF0.9475592002047066
aa(lp1107
F0.4277889299625672
aF0.9452371608992656
aa(lp1108
F0.41697158859822925
aF0.9369108128221949
aa(lp1109
F0.4134964297602831
aF0.9137732383843441
aa(lp1110
F0.4115453154277483
aF0.9008914064239767
aa(lp1111
F0.4223071216062358
aF0.8693114813109797
aa(lp1112
F0.41145512137074436
aF0.8439455070106816
aa(lp1113
F0.39318523525090215
aF0.8299046457769066
aa(lp1114
F0.3790460713301354
aF0.8370840885714578
aa(lp1115
F0.33413155374336084
aF0.8079970428287506
aa(lp1116
F0.3186285297935284
aF0.8357521893558938
aa(lp1117
F0.3359427479028263
aF0.8549734790973309
aa(lp1118
F0.3329280763483185
aF0.8428576941951567
aa(lp1119
F0.32720533098069365
aF0.8599365191922169
aa(lp1120
F0.3437546972197707
aF0.8555154089176737
aa(lp1121
F0.3280350148590504
aF0.8640032334330097
aa(lp1122
F0.3217723539158894
aF0.8520411688012136
aa(lp1123
F0.3277713674559088
aF0.8563521615875855
aa(lp1124
F0.3028397950887347
aF0.8296189406972716
aa(lp1125
F0.2900734034636253
aF0.8329881360752285
aa(lp1126
F0.2848823760253905
aF0.837767209825609
aa(lp1127
F0.3105499612562406
aF0.829564274997569
aa(lp1128
F0.3209051663784043
aF0.873956418398969
aa(lp1129
F0.2884722674803075
aF0.9195356702038816
aa(lp1130
F0.28848700683571027
aF0.903454425524578
aa(lp1131
F0.30625707429022186
aF0.896242062382017
aa(lp1132
F0.2912691103281738
aF0.8815514520822596
aa(lp1133
F0.28855078831851666
aF0.8916039786100377
aa(lp1134
F0.30070137673574104
aF0.870877360167307
aa(lp1135
F0.3043554913511612
aF0.8648624484150489
aa(lp1136
F0.3036945370745097
aF0.8596598420657333
aa(lp1137
F0.3057773891979432
aF0.8659181410543567
aa(lp1138
F0.32069235989347733
aF0.8298911515922465
aa(lp1139
F0.32199625570674667
aF0.8374800685494445
aa(lp1140
F0.3404982349284164
aF0.8400694970771329
aa(lp1141
F0.3320679428197647
aF0.8473000943650393
aa(lp1142
F0.3101811577868737
aF0.8761475780038348
aa(lp1143
F0.32237074367943375
aF0.8976141201686275
aa(lp1144
F0.3238904344537242
aF0.8866082825606101
aa(lp1145
F0.3113854322065341
aF0.8785770945817637
aa(lp1146
F0.28526536282485115
aF0.8583240589343046
aa(lp1147
F0.2797902428544435
aF0.8514095452663353
aa(lp1148
F0.27293358672286755
aF0.8476524122205765
aa(lp1149
F0.29716370716691914
aF0.855338258746913
aa(lp1150
F0.31042353417056895
aF0.859638285371919
aa(lp1151
F0.3284181000430569
aF0.8759815333503932
aa(lp1152
F0.3283985093337621
aF0.86817925796095
aa(lp1153
F0.3272541213517226
aF0.838593257912665
aa(lp1154
F0.36149697378319573
aF0.8318892615646539
aa(lp1155
F0.3492860575867219
aF0.8319428007379865
aa(lp1156
F0.34048173548718064
aF0.8220041543223032
aa(lp1157
F0.3321915645917855
aF0.8349906835273465
aa(lp1158
F0.3410810551954107
aF0.8067525498698909
aa(lp1159
F0.32888214608431504
aF0.8166888917850146
aa(lp1160
F0.33902814318075036
aF0.8386526443112239
aa(lp1161
F0.32621794625204287
aF0.8690677365266883
aa(lp1162
F0.34332192458346267
aF0.8327103705527273
aa(lp1163
F0.32482602122545334
aF0.7884907019768669
aa(lp1164
F0.30526774037341736
aF0.7885596846080647
aa(lp1165
F0.288563991379581
aF0.768042482032932
aa(lp1166
F0.286624635907212
aF0.745515254998282
aa(lp1167
F0.2730257685368854
aF0.7678651448027529
aa(lp1168
F0.3168300760710612
aF0.7988379345279248
aa(lp1169
F0.3326289541544694
aF0.8324169546607123
aa(lp1170
F0.3354465659165895
aF0.8273973159673002
aa(lp1171
F0.3444746654381688
aF0.8594955300175275
aa(lp1172
F0.32932404396748843
aF0.853138966845198
aa(lp1173
F0.34302147907431413
aF0.8333659622752219
aa(lp1174
F0.3568746220948748
aF0.855375672937066
aa(lp1175
F0.3718530825929631
aF0.8704434715771829
aa(lp1176
F0.390756530706972
aF0.8546588797006571
aa(lp1177
F0.39425900682352516
aF0.8688959973643914
aa(lp1178
F0.41076538792589073
aF0.8771014389999979
aa(lp1179
F0.40013488638163924
aF0.8462776207802042
aa(lp1180
F0.3966918149915501
aF0.8051899589918146
aa(lp1181
F0.38947303167367026
aF0.8189688413140753
aa(lp1182
F0.37514586362346325
aF0.8151850405375534
aa(lp1183
F0.37612487723335053
aF0.8209602604605388
aa(lp1184
F0.3742833351089057
aF0.8366612095252678
aa(lp1185
F0.3569803221657564
aF0.8210662961549817
aa(lp1186
F0.35718181071551547
aF0.8169340827785053
aa(lp1187
F0.3570504279763884
aF0.8148354620759604
aa(lp1188
F0.345295653794465
aF0.8004160242680113
aa(lp1189
F0.3521398979562032
aF0.8175475788797417
aa(lp1190
F0.3392079539547409
aF0.8086921602400938
aa(lp1191
F0.3247045647941171
aF0.8024175847920203
aa(lp1192
F0.31962626843959197
aF0.8217157074141431
aa(lp1193
F0.3126170147537409
aF0.8288925989543134
aa(lp1194
F0.3110803020033653
aF0.8341894550979688
aa(lp1195
F0.2978491163254434
aF0.8308601570180804
aa(lp1196
F0.2927630798566145
aF0.8051427431414717
aa(lp1197
F0.269446995875919
aF0.8047725203183336
aa(lp1198
F0.2681788112515596
aF0.8189533342339074
aa(lp1199
F0.26229177979757295
aF0.8321738478304604
aa(lp1200
F0.28213100975106586
aF0.8200082303030524
aa(lp1201
F0.27370478346665816
aF0.8083323318889113
aa(lp1202
F0.2906460737756867
aF0.8031068831126498
aa(lp1203
F0.28507082665767464
aF0.8130224147951521
aa(lp1204
F0.2882201555313788
aF0.8045695640677523
aa(lp1205
F0.2852306957837606
aF0.7987873741317357
aa(lp1206
F0.29011436900806414
aF0.7810726185430262
aa(lp1207
F0.29766228492246527
aF0.7901369077429075
aa(lp1208
F0.27290790964831724
aF0.751421873626479
aa(lp1209
F0.2595356006442581
aF0.7196396432143566
aa(lp1210
F0.2641441598635568
aF0.7336391057442105
aa(lp1211
F0.23945829572741836
aF0.7127669463799715
aa(lp1212
F0.2687231891841041
aF0.6865434750000228
aa(lp1213
F0.24315623757390642
aF0.6890497196174173
aa(lp1214
F0.2290343810479264
aF0.6985693816385177
aa(lp1215
F0.21046848099892926
aF0.6786882212365163
aa(lp1216
F0.2359533700976157
aF0.6607831037358212
aa(lp1217
F0.2137522453831704
aF0.6602658894505347
aa(lp1218
F0.2218238567859844
aF0.6181759077369442
aa(lp1219
F0.23301742355106625
aF0.6276776620222022
aa(lp1220
F0.2081853593116149
aF0.7014958866533401
aa(lp1221
F0.21341522223301665
aF0.7058140611585545
aa(lp1222
F0.22092302157260613
aF0.6886628009367026
aa(lp1223
F0.24220667050365258
aF0.6499634857253127
aa(lp1224
F0.23155308926398466
aF0.6519467584934916
aa(lp1225
F0.23786025912153366
aF0.6503366257907764
aa(lp1226
F0.2236734698749191
aF0.6698022297425261
aa(lp1227
F0.21715535667843192
aF0.7026488981572453
aa(lp1228
F0.2394963715755342
aF0.7116666186322816
aa(lp1229
F0.23819408245771997
aF0.7409860364842814
aa(lp1230
F0.25509938102552826
aF0.716334675286052
aa(lp1231
F0.2656148488518397
aF0.7342628445490823
aa(lp1232
F0.27946595332949564
aF0.7547900213178141
aa(lp1233
F0.2813780697583535
aF0.7576553072816448
aa(lp1234
F0.31065786005207296
aF0.7470570534895261
aa(lp1235
F0.30462581081149626
aF0.7596915990100767
aa(lp1236
F0.30013238161030786
aF0.7538738026018961
aa(lp1237
F0.3423382434251893
aF0.7646008449256481
aa(lp1238
F0.3140819663112621
aF0.7928223816082541
aa(lp1239
F0.317678955751684
aF0.8038093770305855
aa(lp1240
F0.31064566298083673
aF0.7713958670251034
aa(lp1241
F0.30145391371677527
aF0.7379754926523748
aa(lp1242
F0.30312779149710534
aF0.7448551684587698
aa(lp1243
F0.29089009138837285
aF0.7049108551789046
aa(lp1244
F0.29327016203827816
aF0.7182551826279862
aa(lp1245
F0.27029149664070934
aF0.7008670476461017
aa(lp1246
F0.2443385468694474
aF0.7083998304406237
aa(lp1247
F0.24106610375429235
aF0.702363965763207
aa(lp1248
F0.2618958078179161
aF0.6984351263640484
aa(lp1249
F0.24985271636190087
aF0.6342229623612031
aa(lp1250
F0.2313593409836
aF0.608582764213558
aa(lp1251
F0.2564479417112257
aF0.6222392005864371
aa(lp1252
F0.24251904171672717
aF0.6081479018586495
aa(lp1253
F0.25902136877578674
aF0.6198649065105024
aa(lp1254
F0.24199691072859258
aF0.6079940467231126
aa(lp1255
F0.22508979238478657
aF0.6282514622881438
aa(lp1256
F0.22694661941329106
aF0.6463646888052412
aa(lp1257
F0.2601365424230644
aF0.6714622627414533
aa(lp1258
F0.26349456770702956
aF0.6387185522262883
aa(lp1259
F0.23748939048434958
aF0.665243628665067
aa(lp1260
F0.24469278236732508
aF0.6587505472166156
aa(lp1261
F0.26443512721794526
aF0.6555943689935552
aa(lp1262
F0.2655559424821762
aF0.6758832386182679
aa(lp1263
F0.2796989834659295
aF0.6772229692182383
aa(lp1264
F0.2693231590743621
aF0.6627419420010034
aa(lp1265
F0.25625506425240163
aF0.6504954036260014
aa(lp1266
F0.263945118706989
aF0.6446286916941693
aa(lp1267
F0.26658836800606805
aF0.6708911942793463
aa(lp1268
F0.2586752692038014
aF0.6821572203958798
aa(lp1269
F0.26123677069960166
aF0.6534792303725744
aa(lp1270
F0.2502914297944877
aF0.6256873211515304
aa(lp1271
F0.26679818880039147
aF0.6729533001586836
aa(lp1272
F0.2595849097756805
aF0.6729956320817109
aa(lp1273
F0.2583980775820497
aF0.6562133627448411
aa(lp1274
F0.24647076802070506
aF0.6281183580739148
aa(lp1275
F0.22853456646574266
aF0.6156899588059569
aa(lp1276
F0.22871797994148516
aF0.6068040341496288
aa(lp1277
F0.25054963837153416
aF0.6251379458616602
aa(lp1278
F0.2425893913428333
aF0.6073621376178614
aa(lp1279
F0.2370468423254694
aF0.6128690852504605
aa(lp1280
F0.2522534544021705
aF0.6144515667961737
aa(lp1281
F0.2277917801922808
aF0.6031543270379536
aa(lp1282
F0.25142434554168336
aF0.5885612595838214
aa(lp1283
F0.25457020845491884
aF0.5984602889841574
aa(lp1284
F0.24183962468462755
aF0.6124084941002103
aa(lp1285
F0.22626106897127327
aF0.5972728614702099
aa(lp1286
F0.21638322047874095
aF0.5822258682978844
aa(lp1287
F0.22085884773480446
aF0.6104021634074357
aa(lp1288
F0.2230963305718165
aF0.6456397480424709
aa(lp1289
F0.19604081986219335
aF0.646382916440045
aa(lp1290
F0.2283153020627051
aF0.6467825938494456
aa(lp1291
F0.22682304343043067
aF0.6603574615186478
aa(lp1292
F0.22722505709898155
aF0.6729541784110327
aa(lp1293
F0.2148769297838977
aF0.6812048044632705
aa(lp1294
F0.22499985655443003
aF0.6786633685482732
aa(lp1295
F0.2354099390499954
aF0.6637656538824025
aa(lp1296
F0.21704480347262226
aF0.6847039124192178
aa(lp1297
F0.24439378889623364
aF0.6679737766400937
aa(lp1298
F0.27363215815537
aF0.6840721245929569
aa(lp1299
F0.24168044405069644
aF0.6882991320496193
aa(lp1300
F0.2612394681701913
aF0.7009902448648372
aa(lp1301
F0.2631013663124145
aF0.7021551199719301
aa(lp1302
F0.24314136957012325
aF0.7207847302355466
aa(lp1303
F0.24449117957083563
aF0.7157836576088918
aa(lp1304
F0.24451088030447624
aF0.7083495315745837
aa(lp1305
F0.2632159373252082
aF0.723486785080072
aa(lp1306
F0.26810810708407995
aF0.7194738251415997
aa(lp1307
F0.2949389885735908
aF0.7002934811790743
aa(lp1308
F0.30325865559248505
aF0.6828481402894727
aa(lp1309
F0.2594719510816645
aF0.697962888502453
aa(lp1310
F0.2463684128790033
aF0.7185014202817669
aa(lp1311
F0.2313576615377109
aF0.7256485120434801
aa(lp1312
F0.22643077042196674
aF0.6958891797125626
aa(lp1313
F0.24373459217633303
aF0.7177799677775519
aa(lp1314
F0.24085197943024902
aF0.69919432424776
aa(lp1315
F0.2575911242415711
aF0.7050806903619828
aa(lp1316
F0.2375056153210842
aF0.7373959226257538
aa(lp1317
F0.24550914108054434
aF0.7587403794447293
aa(lp1318
F0.24638108212397142
aF0.7666739265048422
aa(lp1319
F0.2817577813466634
aF0.7856208160140634
aa(lp1320
F0.2800048739205678
aF0.7889814932569515
aa(lp1321
F0.31108258205494393
aF0.7858081468987603
aa(lp1322
F0.2868928919752579
aF0.7613661450542899
aa(lp1323
F0.26322856961069896
aF0.7922962293650354
aa(lp1324
F0.27439384316775584
aF0.7872216075287176
aa(lp1325
F0.27582870417799255
aF0.7936186133509293
aa(lp1326
F0.27782458661229725
aF0.7753038226536384
aa(lp1327
F0.2948227466249058
aF0.7449263814107882
aa(lp1328
F0.3238966390869019
aF0.7707671618564056
aa(lp1329
F0.3135114793440885
aF0.7681581413864378
aa(lp1330
F0.28931265538579287
aF0.8459256947913216
aa(lp1331
F0.28430789265752304
aF0.8481754238875595
aa(lp1332
F0.3036403327024456
aF0.8442669726709459
aa(lp1333
F0.29790617915078177
aF0.8318549991033524
aa(lp1334
F0.31078724438389643
aF0.8152441758427211
aa(lp1335
F0.3027967261042828
aF0.7905416466155444
aa(lp1336
F0.2788917271571636
aF0.8112414353357901
aa(lp1337
F0.2778625535147734
aF0.8258917505960576
aa(lp1338
F0.2947390185629094
aF0.8121513847155377
aa(lp1339
F0.2872026712382427
aF0.8545147610525476
aa(lp1340
F0.28972724750935
aF0.8441615240987083
aa(lp1341
F0.3010707474527689
aF0.8472931732817781
aa(lp1342
F0.3213075363969766
aF0.8258463301645548
aa(lp1343
F0.32654454047029297
aF0.7719675450670079
aa(lp1344
F0.3218792955455517
aF0.7603474191233986
aa(lp1345
F0.32746038195433547
aF0.7665058539073983
aa(lp1346
F0.34209398661229634
aF0.7555109825105236
aa(lp1347
F0.3477152193271151
aF0.7687624675388158
aa(lp1348
F0.34931859500661155
aF0.7753304934483275
aa(lp1349
F0.3643322485546856
aF0.8168538298583314
aa(lp1350
F0.3719083894409247
aF0.8423622477551888
aa(lp1351
F0.3472513804458146
aF0.8513469802307875
aa(lp1352
F0.34214102133212415
aF0.8626768068010913
aa(lp1353
F0.3321997360674423
aF0.8402609150982217
aa(lp1354
F0.32175976865483
aF0.8419982261980541
aa(lp1355
F0.30915049759093377
aF0.8362583128366446
aa(lp1356
F0.32660803551573314
aF0.8529601151303109
aa(lp1357
F0.31306629886736553
aF0.8504675820538599
aa(lp1358
F0.31588757177750193
aF0.8658032969303179
aa(lp1359
F0.3544708593778779
aF0.867384946093977
aa(lp1360
F0.37449860912196187
aF0.8578743890427215
aa(lp1361
F0.33816746915162177
aF0.8263911515198861
aa(lp1362
F0.33524244757248917
aF0.813061862234434
aa(lp1363
F0.31554955751384167
aF0.812001163359435
aa(lp1364
F0.3076242892239862
aF0.7993885298917451
aa(lp1365
F0.31552556598980913
aF0.8159515784459241
aa(lp1366
F0.3173517643025583
aF0.8069128745009262
aa(lp1367
F0.33974675315211944
aF0.8112744932002652
aa(lp1368
F0.3260423320314104
aF0.8076351305644429
aa(lp1369
F0.3464138695746066
aF0.7959801939935677
aa(lp1370
F0.3454659727072015
aF0.7950301476442357
aa(lp1371
F0.3468418497258719
aF0.8141478554397237
aa(lp1372
F0.36099150938467744
aF0.814904428543742
aa(lp1373
F0.3508801405649261
aF0.7791285351945662
aa(lp1374
F0.34488997815922623
aF0.790124525977831
aa(lp1375
F0.30722165957837955
aF0.7765545297136396
aa(lp1376
F0.32597650506764436
aF0.7983093072368274
aa(lp1377
F0.33624932858882883
aF0.7981606208159429
aa(lp1378
F0.32113340847982785
aF0.8265800620276795
aa(lp1379
F0.3272337010577782
aF0.811177688589175
aa(lp1380
F0.29197016845060214
aF0.7739943040646591
aa(lp1381
F0.3013860055603139
aF0.7574627208201217
aa(lp1382
F0.2794225840890648
aF0.7381763058603694
aa(lp1383
F0.31052382940101475
aF0.7541159221762047
aa(lp1384
F0.30351441354927283
aF0.8053784584652476
aa(lp1385
F0.30377606384790046
aF0.7941885338591324
aa(lp1386
F0.29826741841423954
aF0.7749991188355287
aa(lp1387
F0.2833417875630672
aF0.7996240584102393
aa(lp1388
F0.32836840056977595
aF0.7735342641029985
aa(lp1389
F0.314202514489851
aF0.7860366732588779
aa(lp1390
F0.31388205126026886
aF0.8027194568049366
aa(lp1391
F0.3313251684002452
aF0.7999275129193975
aa(lp1392
F0.34614273463769885
aF0.8159551048138763
aa(lp1393
F0.3594378280230403
aF0.830393200975822
aa(lp1394
F0.313576278865557
aF0.8188837220219792
aa(lp1395
F0.31921006877948555
aF0.809465332071725
aa(lp1396
F0.3330351094383819
aF0.7833317027509313
aa(lp1397
F0.3042562560782229
aF0.7384426100856436
aa(lp1398
F0.2895908699730848
aF0.7709784550733815
aa(lp1399
F0.29582720581823463
aF0.7752370065232081
aa(lp1400
F0.254057074015564
aF0.7545857116727892
aa(lp1401
F0.24880069442075733
aF0.7574805778349907
aa(lp1402
F0.2884086654690482
aF0.7358295024950838
aa(lp1403
F0.29987524867595033
aF0.7600293001764595
aa(lp1404
F0.3090279493557824
aF0.7509800877930337
aa(lp1405
F0.29630744168224626
aF0.727653782741938
aa(lp1406
F0.2831940759596855
aF0.7413841782017974
aa(lp1407
F0.2792686271240799
aF0.7317533950308919
aa(lp1408
F0.3152285919020577
aF0.7206220371496364
aa(lp1409
F0.31636718228233496
aF0.7192402282784927
aa(lp1410
F0.30883704108254795
aF0.6986687420634573
aa(lp1411
F0.29310474253226243
aF0.6657370149766
aa(lp1412
F0.2806977148671684
aF0.6615147412491386
aa(lp1413
F0.24547448378502554
aF0.6385948730981729
aa(lp1414
F0.23859224163232504
aF0.6714182438279677
aa(lp1415
F0.24188586700660214
aF0.6423942440934348
aa(lp1416
F0.24379416135171042
aF0.6550871049075845
aa(lp1417
F0.2582094618325938
aF0.648007061066045
aa(lp1418
F0.27703284237749554
aF0.6673868634801133
aa(lp1419
F0.28427870171434494
aF0.6890812801452977
aa(lp1420
F0.27844990867062697
aF0.6757719136168163
aa(lp1421
F0.23819250154778107
aF0.6945917406297271
aa(lp1422
F0.23783421540881355
aF0.6920906400807015
aa(lp1423
F0.2578322720632214
aF0.724988161115323
aa(lp1424
F0.2518707156570153
aF0.7334091885984202
aa(lp1425
F0.2488422339604227
aF0.7026952578952301
aa(lp1426
F0.25408527798974423
aF0.6888515057312771
aa(lp1427
F0.2489157916662799
aF0.7324851073122443
aa(lp1428
F0.2398144765023382
aF0.7301553979608202
aa(lp1429
F0.25777136588736776
aF0.7240055756827544
aa(lp1430
F0.29627771327552804
aF0.7184574706640992
aa(lp1431
F0.2903000027281713
aF0.7186389127391289
aa(lp1432
F0.26998288396699227
aF0.7060065096904231
aa(lp1433
F0.2767728147076156
aF0.7456504487948473
aa(lp1434
F0.265479556551677
aF0.7312115532164377
aa(lp1435
F0.25275803011707376
aF0.7457397488884231
aa(lp1436
F0.24580945715860383
aF0.7284797500634334
aa(lp1437
F0.2821009312927835
aF0.7149853599923356
aa(lp1438
F0.287586080370224
aF0.734575628390018
aa(lp1439
F0.26061668186495435
aF0.7108528634079241
aa(lp1440
F0.2518824871625318
aF0.7189342866997686
aa(lp1441
F0.2647614284105639
aF0.7246026940238266
aa(lp1442
F0.2878287327791315
aF0.7097951866812907
aa(lp1443
F0.2759626012302506
aF0.6858116359078567
aa(lp1444
F0.2688799740420423
aF0.6730276380681355
aa(lp1445
F0.2598585407285118
aF0.6718838859450511
aa(lp1446
F0.27105021806354995
aF0.6955630898129077
aa(lp1447
F0.2712901291203953
aF0.7016968739914877
aa(lp1448
F0.2602650531746727
aF0.6809395080904278
aa(lp1449
F0.27891455287015493
aF0.6799727485962511
aa(lp1450
F0.2532874415058495
aF0.6963781777036652
aa(lp1451
F0.26357787992806336
aF0.6949704552789047
aa(lp1452
F0.24611510610252094
aF0.7002011726927675
aa(lp1453
F0.24946720255483681
aF0.6840661906487379
aa(lp1454
F0.22498819909680123
aF0.6772910598995272
aa(lp1455
F0.21950495690605462
aF0.686414892462772
aa(lp1456
F0.20690103798942194
aF0.7129556076304641
aa(lp1457
F0.2155213070000542
aF0.708040892744518
aa(lp1458
F0.1939376400471935
aF0.6895701031699875
aa(lp1459
F0.18815616015060013
aF0.6979345756134296
aa(lp1460
F0.21084679397866044
aF0.6840819485772646
aa(lp1461
F0.20111543861385017
aF0.6723881799668994
aa(lp1462
F0.20666255383562626
aF0.6706656726199345
aa(lp1463
F0.18905156020761246
aF0.6490704120217314
aa(lp1464
F0.21188290594124193
aF0.6447498425583589
aa(lp1465
F0.2108168902254218
aF0.6438579837399749
aa(lp1466
F0.23020162182408
aF0.6241968407265849
aa(lp1467
F0.24581773486837094
aF0.6456539010665979
aa(lp1468
F0.22574974139477896
aF0.6674301728234472
aa(lp1469
F0.26089790811266245
aF0.6827349821909238
aa(lp1470
F0.28776876731537654
aF0.7163666113849232
aa(lp1471
F0.28325310262546155
aF0.7067903578386716
aa(lp1472
F0.23756566787903247
aF0.7169197831342389
aa(lp1473
F0.23046482166953686
aF0.7234569693590148
aa(lp1474
F0.2423057784776969
aF0.7255594716200967
aa(lp1475
F0.23874153444817742
aF0.7235974841200256
aa(lp1476
F0.23808736940953476
aF0.7143371545550913
aa(lp1477
F0.2516656042346496
aF0.7374722945189014
aa(lp1478
F0.2533365620155845
aF0.6776139635384713
aa(lp1479
F0.2556403535973028
aF0.6599354675398653
aa(lp1480
F0.2133423696321331
aF0.6539840017408904
aa(lp1481
F0.2205995833321164
aF0.6387730208219671
aa(lp1482
F0.2456022025478271
aF0.6534113925579579
aa(lp1483
F0.20919559912724175
aF0.6484383212975353
aa(lp1484
F0.23492299302749597
aF0.6432160951190093
aa(lp1485
F0.22877508044721123
aF0.6609346663985722
aa(lp1486
F0.22088689313062287
aF0.6766503249260052
aa(lp1487
F0.2552195223799615
aF0.6748865246136048
aa(lp1488
F0.24057217142636805
aF0.6569902614841631
aa(lp1489
F0.2432741611378983
aF0.6593999252436484
aa(lp1490
F0.25850891339908527
aF0.6611157977817943
aa(lp1491
F0.23679770984280624
aF0.6448435665886015
aa(lp1492
F0.2400784427216872
aF0.656825123179842
aa(lp1493
F0.25400106579518344
aF0.652852572675098
aa(lp1494
F0.2570819349904555
aF0.6630969054200906
aa(lp1495
F0.26765147681868945
aF0.7137206989801923
aa(lp1496
F0.26839708663859096
aF0.6989106174806947
aa(lp1497
F0.2640861648534655
aF0.6943431790064376
aa(lp1498
F0.26298901775140004
aF0.7191893231124648
aa(lp1499
F0.26674445344290576
aF0.7389905991259313
aa(lp1500
F0.27580473790774007
aF0.76121240265178
aa(lp1501
F0.31534020859945655
aF0.7800791476480964
aa(lp1502
F0.2813210395946241
aF0.7903779929089627
aa(lp1503
F0.2788477939548451
aF0.7548520094465012
aa(lp1504
F0.29846770464656064
aF0.7522943274048115
aa(lp1505
F0.3026721357566505
aF0.7345526590305826
aa(lp1506
F0.33818719097717126
aF0.741723892883107
aa(lp1507
F0.32080187654741943
aF0.738466082728465
aa(lp1508
F0.3215099003528
aF0.7510177882877341
aa(lp1509
F0.2983717552636615
aF0.7620010052696351
aa(lp1510
F0.31219279627519086
aF0.7676819598830211
aa(lp1511
F0.3039582897159986
aF0.7601669061780365
aa(lp1512
F0.2921447756703307
aF0.7732339846088613
aa(lp1513
F0.26826525490993336
aF0.7458297654252487
aa(lp1514
F0.28464082763362336
aF0.7368962846830565
aa(lp1515
F0.2986702033142705
aF0.7478425486871897
aa(lp1516
F0.2731415771669716
aF0.7235509949043794
aa(lp1517
F0.26962241533373704
aF0.7366891201337695
aa(lp1518
F0.2837223780614895
aF0.7179129231624342
aa(lp1519
F0.2991879239144639
aF0.7481753391888483
aa(lp1520
F0.29140791260137733
aF0.7361177942944426
aa(lp1521
F0.2851706404741459
aF0.7319301965449382
aa(lp1522
F0.2509582916024073
aF0.739182769964037
aa(lp1523
F0.2501591953359934
aF0.7424147476096032
aa(lp1524
F0.25110198154833313
aF0.7438227458458548
aa(lp1525
F0.2572263846033959
aF0.7343683542258524
aa(lp1526
F0.26781215609431175
aF0.7419070380643399
aa(lp1527
F0.25504319211368215
aF0.7395317410061696
aa(lp1528
F0.24446471350057114
aF0.7076470601409282
aa(lp1529
F0.20336475568081464
aF0.6868046268768592
aa(lp1530
F0.22865990852439916
aF0.6803792671776978
aa(lp1531
F0.2556022379790222
aF0.6758671922347429
aa(lp1532
F0.267434433193929
aF0.6761699821381519
aa(lp1533
F0.2626485525761111
aF0.6678240723282436
aa(lp1534
F0.27399596669026627
aF0.7050321261555738
aa(lp1535
F0.25898829012848273
aF0.7187388385623027
aa(lp1536
F0.2374794772060705
aF0.7297094736964124
aa(lp1537
F0.22717167390015164
aF0.7245567385071353
aa(lp1538
F0.24149395161455253
aF0.7693120366901116
aa(lp1539
F0.23476279613355133
aF0.7539552822675213
aa(lp1540
F0.2455681680399852
aF0.738321983365677
aa(lp1541
F0.24952730963899733
aF0.7605569886665424
aa(lp1542
F0.2534053198588183
aF0.7881658155064252
aa(lp1543
F0.2516271450970949
aF0.7739576026208194
aa(lp1544
F0.292328617587353
aF0.7813472009958445
aa(lp1545
F0.29744773364424093
aF0.8086317605630636
aa(lp1546
F0.2950607857680017
aF0.8066718114370236
aa(lp1547
F0.29179239035575727
aF0.819780194355036
aa(lp1548
F0.2686414137677536
aF0.8135222300658116
aa(lp1549
F0.3006528695918258
aF0.7885087712916208
aa(lp1550
F0.31508445317683337
aF0.804335800944669
aa(lp1551
F0.313548440241014
aF0.8019451458682414
aa(lp1552
F0.3095163739452187
aF0.8522922304075826
aa(lp1553
F0.3134473394235798
aF0.8521964111342016
aa(lp1554
F0.294181303290399
aF0.8388616302215236
aa(lp1555
F0.3141569874959702
aF0.8763057826313867
aa(lp1556
F0.31592390274426363
aF0.847443558539721
aa(lp1557
F0.32015481535135265
aF0.8365485702691576
aa(lp1558
F0.3066971730342009
aF0.8176622556746286
aa(lp1559
F0.3373791094988709
aF0.8170659737753143
aa(lp1560
F0.3167443489319511
aF0.8165151264256263
aa(lp1561
F0.2919377608186243
aF0.8152185207258038
aa(lp1562
F0.273800856095971
aF0.7899097358142608
aa(lp1563
F0.27677845810792795
aF0.8003578425401215
aa(lp1564
F0.2935539716511598
aF0.8101290418947421
aa(lp1565
F0.315356533504297
aF0.8047844982183728
aa(lp1566
F0.3186929526005673
aF0.8184116630462761
aa(lp1567
F0.31442703428540675
aF0.7910336213718233
aa(lp1568
F0.29864528620341557
aF0.8366401638870817
aa(lp1569
F0.35327802391869123
aF0.8275173903911222
aa(lp1570
F0.3427373525398838
aF0.8464524643638419
aa(lp1571
F0.34494388496208683
aF0.8403426080691578
aa(lp1572
F0.3262828891886212
aF0.8402532646495309
aa(lp1573
F0.29356656560260175
aF0.8738004154657648
aa(lp1574
F0.30194991889724915
aF0.8682925669083159
aa(lp1575
F0.33181163573448164
aF0.8604608893758156
aa(lp1576
F0.31361263946581286
aF0.8938293690978472
aa(lp1577
F0.29879245746955513
aF0.8818804405260462
aa(lp1578
F0.30141122964469724
aF0.8696292616049756
aa(lp1579
F0.33811783138732016
aF0.8765986157389657
aa(lp1580
F0.3592212176432437
aF0.86019066886933
aa(lp1581
F0.3821643287876896
aF0.9006314964987459
aa(lp1582
F0.37824092028386946
aF0.91394285516049
aa(lp1583
F0.36250061135103095
aF0.9030911969919381
aa(lp1584
F0.3391164296036204
aF0.8999904823964994
aa(lp1585
F0.34476603815633483
aF0.8732568079574784
aa(lp1586
F0.3448747383427777
aF0.8636384032996459
aa(lp1587
F0.35138417762697316
aF0.8393250196131097
aa(lp1588
F0.3572423238970599
aF0.8400597504484589
aa(lp1589
F0.36308413300141335
aF0.8438798078929333
aa(lp1590
F0.35684541427126687
aF0.8198581366591733
aa(lp1591
F0.353795090686132
aF0.8512807198938676
aa(lp1592
F0.35396804957192674
aF0.8741181989213228
aa(lp1593
F0.36477872921339294
aF0.8948576785451666
aa(lp1594
F0.36853208847475577
aF0.9107625016383054
aa(lp1595
F0.4110560275245278
aF0.9062704323342919
aa(lp1596
F0.3783252546094747
aF0.8593652129485636
aa(lp1597
F0.38662694819389304
aF0.8437767290495789
aa(lp1598
F0.38988995438619123
aF0.8589617834458334
aa(lp1599
F0.376635125740615
aF0.874667170370832
aa(lp1600
F0.37989210619881847
aF0.8895459376753634
aa(lp1601
F0.3641833390328996
aF0.8855732959434426
aa(lp1602
F0.38134023602748
aF0.9173954090261467
aa(lp1603
F0.37736046736897905
aF0.9112447918528768
aa(lp1604
F0.37828442961993103
aF0.8884241135951916
aa(lp1605
F0.3696531215820332
aF0.871113443496074
aa(lp1606
F0.3870054459857901
aF0.9100011448319958
aa(lp1607
F0.3996664746148016
aF0.9168098253417118
aa(lp1608
F0.3824526125814771
aF0.9154165668404167
aa(lp1609
F0.375036187096436
aF0.8958990252528685
aa(lp1610
F0.39983746931932956
aF0.889005802599542
aa(lp1611
F0.4041798707181995
aF0.8874093832164928
aa(lp1612
F0.41233239686557766
aF0.8594740282810678
aa(lp1613
F0.4235951473574665
aF0.9039600921542926
aa(lp1614
F0.4147964334291056
aF0.8906369198893769
aa(lp1615
F0.39457922265411144
aF0.9237272240475249
aa(lp1616
F0.4049977110745308
aF0.9243787560512013
aa(lp1617
F0.410325990069456
aF0.9483272189093639
aa(lp1618
F0.42112415110909474
aF0.9120692678512158
aa(lp1619
F0.4051660628648621
aF0.952815781344879
aa(lp1620
F0.4046307490097513
aF0.9549701875149004
aa(lp1621
F0.37137693605488453
aF0.9302475664159363
aa(lp1622
F0.3416449171351805
aF0.9089191541722481
aa(lp1623
F0.33460512250573193
aF0.9022158985958898
aa(lp1624
F0.3578131869164914
aF0.8904757598290347
aa(lp1625
F0.35108230299414933
aF0.8867951558403552
aa(lp1626
F0.3522369605302346
aF0.8793833370096096
aa(lp1627
F0.3644731334106713
aF0.8651353028193466
aa(lp1628
F0.3700847608730283
aF0.8398368996072872
aa(lp1629
F0.37525667098186344
aF0.8370495208481924
aa(lp1630
F0.34155038413578015
aF0.821735277136288
aa(lp1631
F0.3393609426665011
aF0.8242455723842629
aa(lp1632
F0.33623893221368956
aF0.8303181117330474
aa(lp1633
F0.30110067280176167
aF0.8353868387846751
aa(lp1634
F0.29552677032455443
aF0.8264208610287931
aa(lp1635
F0.2883688187181477
aF0.8180892459611094
aa(lp1636
F0.301985324028914
aF0.7989701233619607
aa(lp1637
F0.3084909709594329
aF0.7801578112144331
aa(lp1638
F0.2924537001263604
aF0.7993279467089506
aa(lp1639
F0.2734884156141844
aF0.8034743689070668
aa(lp1640
F0.3031177414741819
aF0.8342968750846442
aa(lp1641
F0.30984009426430065
aF0.8287050931527777
aa(lp1642
F0.311590881271857
aF0.7968943053122521
aa(lp1643
F0.30662126347154856
aF0.8286076260268773
aa(lp1644
F0.3227968824825013
aF0.8246837927522026
aa(lp1645
F0.34488082196745173
aF0.8347924757535324
aa(lp1646
F0.3502332279098102
aF0.8271909248362189
aa(lp1647
F0.335579342790072
aF0.8041949693168388
aa(lp1648
F0.32155795520367403
aF0.8137949634990108
aa(lp1649
F0.31334651583450807
aF0.8079440843949373
aa(lp1650
F0.3245701386824673
aF0.794179561906649
aa(lp1651
F0.30880752837173164
aF0.8240069839599041
aa(lp1652
F0.31731858173500815
aF0.7976653227561863
aa(lp1653
F0.2890905097537191
aF0.8083975641404013
aa(lp1654
F0.2928611305815618
aF0.8167389742435408
aa(lp1655
F0.2763482241659684
aF0.8492496461837403
aa(lp1656
F0.30070058515052683
aF0.8477170432971798
aa(lp1657
F0.29968135110630595
aF0.8225481263945997
aa(lp1658
F0.3062252587213044
aF0.8390495033446017
aa(lp1659
F0.29790231251543137
aF0.8209100154194817
aa(lp1660
F0.2962645130311889
aF0.8367697909520782
aa(lp1661
F0.3114038882733125
aF0.8456853604254394
aa(lp1662
F0.3301194305110917
aF0.8336641644760114
aa(lp1663
F0.3278933515801204
aF0.8248148570388371
aa(lp1664
F0.34429636968439453
aF0.8102261742721901
aa(lp1665
F0.3339810482432186
aF0.820863536693395
aa(lp1666
F0.319172169723487
aF0.8323343309740605
aa(lp1667
F0.3161308834002895
aF0.8447850207517072
aa(lp1668
F0.3178360646779985
aF0.8675701125914583
aa(lp1669
F0.3113005338061636
aF0.8592139309849857
aa(lp1670
F0.298733351998094
aF0.8419986483687778
aa(lp1671
F0.3155062577448571
aF0.8500849402336511
aa(lp1672
F0.31923362646182224
aF0.8404556064441155
aa(lp1673
F0.3213992289457023
aF0.8421386998857763
aa(lp1674
F0.31921989349648183
aF0.8539723387018648
aa(lp1675
F0.314264478432648
aF0.8600353827087288
aa(lp1676
F0.3211416400419428
aF0.8674377417152684
aa(lp1677
F0.31576005140591024
aF0.8640649071304272
aa(lp1678
F0.298455966335201
aF0.8803303165443187
aa(lp1679
F0.2973357279687364
aF0.8944818851939486
aa(lp1680
F0.3117749510613185
aF0.9294326903447393
aa(lp1681
F0.33426361368624596
aF0.9143626189489796
aa(lp1682
F0.3229838676562119
aF0.8865087011466535
aa(lp1683
F0.31723234036796016
aF0.8716964347046304
aa(lp1684
F0.3276761482181082
aF0.8582467675086533
aa(lp1685
F0.33274750842056783
aF0.8290046084994149
aa(lp1686
F0.3313403526795283
aF0.8172947083322967
aa(lp1687
F0.3361493919126655
aF0.8183816076801104
aa(lp1688
F0.3420792638063952
aF0.8256908738350066
aa(lp1689
F0.3394035162880989
aF0.8542871655798217
aa(lp1690
F0.3226791384683352
aF0.8669796408831356
aa(lp1691
F0.3267779690348476
aF0.8826268357081197
aa(lp1692
F0.33158449271900187
aF0.8955449105479563
aa(lp1693
F0.34555537382894735
aF0.8881497802044882
aa(lp1694
F0.3302218681169616
aF0.9137804041958746
aa(lp1695
F0.3318589048779919
aF0.9020988126901435
aa(lp1696
F0.36784133773172284
aF0.8942395362505926
aa(lp1697
F0.37243502966887637
aF0.8511338205225158
aa(lp1698
F0.35464117944137225
aF0.8276932756743415
aa(lp1699
F0.34357520160673827
aF0.8102453640020733
aa(lp1700
F0.3286091285810314
aF0.8055267403560317
aa(lp1701
F0.3378921608485635
aF0.8324776187126313
aa(lp1702
F0.3294094589912273
aF0.824873786568451
aa(lp1703
F0.31575930761855825
aF0.8302307184959842
aa(lp1704
F0.34011593678488583
aF0.8516606491615862
aa(lp1705
F0.3477777208600334
aF0.8321683238142217
aa(lp1706
F0.34967889057291024
aF0.8230190561293277
aa(lp1707
F0.36736045544828044
aF0.800354532719283
aa(lp1708
F0.3756356998397554
aF0.802227966709908
aa(lp1709
F0.37558853569659195
aF0.7992188687086946
aa(lp1710
F0.3888210913711439
aF0.8065311436765921
aa(lp1711
F0.3963054415972427
aF0.8254205262643808
aa(lp1712
F0.3927751280025891
aF0.8376501341913968
aa(lp1713
F0.392636674529088
aF0.8284991795039106
aa(lp1714
F0.3619718068298595
aF0.8006599475336231
aa(lp1715
F0.3645669032085105
aF0.7989843987421347
aa(lp1716
F0.3531114790391182
aF0.8180948925147271
aa(lp1717
F0.3198045428853767
aF0.8310689911393611
aa(lp1718
F0.3332357297369343
aF0.8368229628958951
aa(lp1719
F0.3429930553629648
aF0.8727508249959365
aa(lp1720
F0.338592268431701
aF0.8531922026014105
aa(lp1721
F0.34779070479155166
aF0.8202385713395461
aa(lp1722
F0.3472922997564988
aF0.8405678768246441
aa(lp1723
F0.35200556281106626
aF0.8213858913614543
aa(lp1724
F0.34803158851258714
aF0.8265416839027371
aa(lp1725
F0.36297577366224404
aF0.8503744146749384
aa(lp1726
F0.37368753602701843
aF0.8386644993461279
aa(lp1727
F0.35650170057984193
aF0.8608317520345562
aa(lp1728
F0.3337232771770266
aF0.8534430689906274
aa(lp1729
F0.3162283490191935
aF0.8470426318151895
aa(lp1730
F0.3191871184655541
aF0.8181627434515065
aa(lp1731
F0.3030021880735151
aF0.8201174964354441
aa(lp1732
F0.29890204478751486
aF0.8247287443826957
aa(lp1733
F0.3113915282822659
aF0.7773908578734552
aa(lp1734
F0.3165251704815545
aF0.7642180612130954
aa(lp1735
F0.3206938887503993
aF0.7566143533696273
aa(lp1736
F0.2800491945243672
aF0.7379631244097659
aa(lp1737
F0.2910560556485667
aF0.7538000685928017
aa(lp1738
F0.292600715578094
aF0.7979665227100285
aa(lp1739
F0.3077081979328343
aF0.7974518619017223
aa(lp1740
F0.2588336919334262
aF0.8118929722839701
aa(lp1741
F0.26500418680423965
aF0.8106075386027265
aa(lp1742
F0.2847591079138732
aF0.8069817146696409
aa(lp1743
F0.3181229070362153
aF0.8645034512264653
aa(lp1744
F0.31379102625234206
aF0.9111608190450838
aa(lp1745
F0.33544592609518054
aF0.9363652567283245
aa(lp1746
F0.3358569364764073
aF0.9057343580555136
aa(lp1747
F0.314825615429682
aF0.8575670488143646
aa(lp1748
F0.350615195296927
aF0.8807586728270224
aa(lp1749
F0.3914084575162083
aF0.8747509703511314
aa(lp1750
F0.3330388588384404
aF0.8896135996616525
aa(lp1751
F0.3375250207504801
aF0.8987780943160195
aa(lp1752
F0.32353472732318556
aF0.8535625154725393
aa(lp1753
F0.3189568568997658
aF0.8752345659954218
aa(lp1754
F0.33414167492426783
aF0.8643125698748861
aa(lp1755
F0.3421056485840171
aF0.8720300569653768
aa(lp1756
F0.3261518571240093
aF0.8807594438432379
aa(lp1757
F0.3351730079766732
aF0.8850845078463822
aa(lp1758
F0.327770985162095
aF0.8830025357466692
aa(lp1759
F0.3569621831267022
aF0.8898202385170553
aa(lp1760
F0.33287656360771445
aF0.8941092231946525
aa(lp1761
F0.3241935285263842
aF0.8694417514959039
aa(lp1762
F0.3359184050606917
aF0.8637690696203847
aa(lp1763
F0.3212572419557419
aF0.8392055890581506
aa(lp1764
F0.31107872141002874
aF0.8326934642669346
aa(lp1765
F0.32800808109463286
aF0.8324030794578157
aa(lp1766
F0.3524886118101848
aF0.85193225677402
aa(lp1767
F0.35593986863683247
aF0.8843459752408859
aa(lp1768
F0.3457955974222035
aF0.8563187432170312
aa(lp1769
F0.3651384666637717
aF0.874371840554473
aa(lp1770
F0.3826901891717185
aF0.8752531595051922
aa(lp1771
F0.402321425257277
aF0.8811147870708909
aa(lp1772
F0.3842824027035458
aF0.8806013163749664
aa(lp1773
F0.38710551735323356
aF0.9004155445932128
aa(lp1774
F0.38264086739667863
aF0.8817702312654158
aa(lp1775
F0.39464858168448247
aF0.8976801525212336
aa(lp1776
F0.3942724483396161
aF0.8832900883586517
aa(lp1777
F0.36554281345644235
aF0.8482846940977854
aa(lp1778
F0.36295927201261996
aF0.8589748682328722
aa(lp1779
F0.3663683568329188
aF0.8552599045457574
aa(lp1780
F0.34557285609141675
aF0.8528373359651669
aa(lp1781
F0.31880876709594125
aF0.8595493197120433
aa(lp1782
F0.3302473494611111
aF0.877076887171547
aa(lp1783
F0.313793484952061
aF0.8711798316673907
aa(lp1784
F0.2948823167500132
aF0.8713283048270563
aa(lp1785
F0.32094127214254303
aF0.8561988089254766
aa(lp1786
F0.30915932891238324
aF0.8472713274207073
aa(lp1787
F0.3366158407908027
aF0.8266333357411876
aa(lp1788
F0.3462013166112109
aF0.8196173357178665
aa(lp1789
F0.329150031181143
aF0.8421928307591899
aa(lp1790
F0.3209867284788217
aF0.8555484191143151
aa(lp1791
F0.3314318516004438
aF0.8447874915215862
aa(lp1792
F0.3285338053260402
aF0.8384734270019316
aa(lp1793
F0.32915441957334296
aF0.8350712231918287
aa(lp1794
F0.3260135849388311
aF0.8242323569223973
aa(lp1795
F0.3138881606835602
aF0.8155235789635338
aa(lp1796
F0.3374226820899219
aF0.8497106473338777
aa(lp1797
F0.3598619205024516
aF0.8281913360136679
aa(lp1798
F0.35270307690390185
aF0.819860022034818
aa(lp1799
F0.3355679817131522
aF0.8340832772320979
aa(lp1800
F0.328295582388798
aF0.8311296002793497
aa(lp1801
F0.31763927150632737
aF0.8133455075058396
aa(lp1802
F0.31873443299976817
aF0.8151112997622283
aa(lp1803
F0.30341889084857016
aF0.8260347828605151
aa(lp1804
F0.3076721046391678
aF0.789426302921051
aa(lp1805
F0.3156546847810158
aF0.7775468219601461
aa(lp1806
F0.31441685770532074
aF0.7758454598234672
aa(lp1807
F0.31881343983456467
aF0.7593039736058047
aa(lp1808
F0.3118284895546395
aF0.7546594706958437
aa(lp1809
F0.28998818091738776
aF0.7595649157609592
aa(lp1810
F0.2895790019549165
aF0.7506863443915969
aa(lp1811
F0.29485759993431754
aF0.7405382546510612
aa(lp1812
F0.3101177594781211
aF0.7572132595317437
aa(lp1813
F0.33926894166986415
aF0.7469648608309188
aa(lp1814
F0.3183624811004587
aF0.7111052799339824
aa(lp1815
F0.33466250703547457
aF0.7450914165409035
aa(lp1816
F0.3377801422926348
aF0.7176585087491625
aa(lp1817
F0.29626455516263495
aF0.6702631129314769
aa(lp1818
F0.28520409419443965
aF0.6794362348668905
aa(lp1819
F0.303178739743723
aF0.7020709097303443
aa(lp1820
F0.30766966953340685
aF0.7453229815657578
aa(lp1821
F0.29586748837269927
aF0.7666889483774941
aa(lp1822
F0.29537593433679366
aF0.7684607470305228
aa(lp1823
F0.2949995743933359
aF0.7571259483759556
aa(lp1824
F0.2843740865763861
aF0.777147469298356
aa(lp1825
F0.30655757963429525
aF0.781967214544708
aa(lp1826
F0.3209641921078145
aF0.7858216612159221
aa(lp1827
F0.3052067181120567
aF0.7446853649143843
aa(lp1828
F0.32465313270037793
aF0.7377891644967217
aa(lp1829
F0.3414474036635387
aF0.7433329665108505
aa(lp1830
F0.33348451904476123
aF0.7326841014128807
aa(lp1831
F0.3188288052245673
aF0.720855109015301
aa(lp1832
F0.29532750432644733
aF0.6584636745988977
aa(lp1833
F0.30842630399007426
aF0.6459958901122737
aa(lp1834
F0.31576559491319395
aF0.6635780533341811
aa(lp1835
F0.2824972199027428
aF0.6210334979811014
aa(lp1836
F0.25533146480438557
aF0.6183585823499564
aa(lp1837
F0.25349414603155995
aF0.640675470217915
aa(lp1838
F0.24210556482646936
aF0.6692044735462187
aa(lp1839
F0.23447774634324398
aF0.6546836587424592
aa(lp1840
F0.25464750479635406
aF0.6440435611526192
aa(lp1841
F0.26260599948789665
aF0.6419142623270344
aa(lp1842
F0.2537473617874964
aF0.6579099935765611
aa(lp1843
F0.2578027644448553
aF0.673579188847796
aa(lp1844
F0.25476149161762246
aF0.6822616276393627
aa(lp1845
F0.26010678100619433
aF0.6835466220783923
aa(lp1846
F0.23071322552879014
aF0.6839087282874665
aa(lp1847
F0.22664376080856197
aF0.6567544098283311
aa(lp1848
F0.2509443982679089
aF0.6542185217183674
aa(lp1849
F0.25539998413128123
aF0.6635741423713636
aa(lp1850
F0.24290330483875425
aF0.6761081792945218
aa(lp1851
F0.22579642744685413
aF0.6553398359430682
aa(lp1852
F0.25011716045065435
aF0.6670088257542716
aa(lp1853
F0.24410723217119532
aF0.6588727194594685
aa(lp1854
F0.25629944198012056
aF0.6445877594765924
aa(lp1855
F0.26320041619381296
aF0.637751576913666
aa(lp1856
F0.22918577669466406
aF0.6302734024655271
aa(lp1857
F0.22603716373407337
aF0.6515163625626071
aa(lp1858
F0.25414034040423134
aF0.6491063662445
aa(lp1859
F0.23100674314656464
aF0.6661058109036401
aa(lp1860
F0.23526318516000067
aF0.6514644425498353
aa(lp1861
F0.2305332952379494
aF0.6519516963618732
aa(lp1862
F0.2221331896757092
aF0.6467380615320216
aa(lp1863
F0.20354622334423117
aF0.6539247793250201
aa(lp1864
F0.22322638875473297
aF0.6601673785400792
aa(lp1865
F0.22328582823779816
aF0.6569659317040741
aa(lp1866
F0.21755815725751812
aF0.6782023418819833
aa(lp1867
F0.20020010481435185
aF0.650904397136599
aa(lp1868
F0.18212074683420398
aF0.6288175569691088
aa(lp1869
F0.1738793039844873
aF0.6141522223214378
aa(lp1870
F0.17377394236271687
aF0.6303200798106929
aa(lp1871
F0.1930203187396213
aF0.6237834629003499
aa(lp1872
F0.21529907640224638
aF0.612559454649561
aa(lp1873
F0.1904857757697882
aF0.6138516457758019
aa(lp1874
F0.1884797973773353
aF0.6443383804196268
aa(lp1875
F0.19047428956544604
aF0.644062810651726
aa(lp1876
F0.16966018035262212
aF0.6231634160687096
aa(lp1877
F0.16313321484823118
aF0.6468188819590144
aa(lp1878
F0.15862625311103207
aF0.6543915655229009
aa(lp1879
F0.1609688784186802
aF0.6582379127004869
aa(lp1880
F0.19353631446687763
aF0.6476152213119305
aa(lp1881
F0.22076820784416143
aF0.628540789889975
aa(lp1882
F0.22431761764095623
aF0.6032387921493112
aa(lp1883
F0.1937698745266548
aF0.598499689174167
aa(lp1884
F0.19320074754152938
aF0.5907377167658519
aa(lp1885
F0.17734041049422233
aF0.6109956515880969
aa(lp1886
F0.19657505845726164
aF0.5962629366549407
aa(lp1887
F0.20298043181634384
aF0.6071777011111997
aa(lp1888
F0.19445680179613803
aF0.6093764385848012
aa(lp1889
F0.22330653332596362
aF0.6305805149944147
aa(lp1890
F0.21505625428739839
aF0.6554745430028731
aa(lp1891
F0.19653973566234392
aF0.6579417267692775
aa(lp1892
F0.17869429859512698
aF0.6641436244794539
aa(lp1893
F0.18117595407701007
aF0.6737325598141294
aa(lp1894
F0.22362065284922636
aF0.6563094421163539
aa(lp1895
F0.25227623594190957
aF0.6807874167343301
aa(lp1896
F0.25300824826354984
aF0.6886384298964362
aa(lp1897
F0.2526769134661455
aF0.7178546996797855
aa(lp1898
F0.21705480435521607
aF0.7482169410960599
aa(lp1899
F0.21358914207243831
aF0.7665719141766557
aa(lp1900
F0.21347722327609198
aF0.7473518033929285
aa(lp1901
F0.2134076186026584
aF0.7413867101135648
aa(lp1902
F0.19915221437595648
aF0.7364970823679079
aa(lp1903
F0.19421146869439382
aF0.71820399756679
aa(lp1904
F0.21192385075581338
aF0.7058704931756707
aa(lp1905
F0.21623075356819932
aF0.6875508656357893
aa(lp1906
F0.2250786788244276
aF0.6633425168705573
aa(lp1907
F0.21855855019854367
aF0.6523222507284867
aa(lp1908
F0.19512257403294375
aF0.6364245749576832
aa(lp1909
F0.20248489311022727
aF0.6240954681629437
aa(lp1910
F0.20797927704321542
aF0.6262989250281992
aa(lp1911
F0.19164925926746834
aF0.6286300640567037
aa(lp1912
F0.1775123119356047
aF0.6168985354726135
aa(lp1913
F0.1688473540662327
aF0.6172891476103742
aa(lp1914
F0.16708130550401915
aF0.6189158718627699
aa(lp1915
F0.1951267225758042
aF0.6314424100814858
aa(lp1916
F0.1953156207019124
aF0.6443954638513394
aa(lp1917
F0.1713658718227383
aF0.6397584612234145
aa(lp1918
F0.1676801444855503
aF0.6324660320824533
aa(lp1919
F0.1419149668839638
aF0.6670103093836178
aa(lp1920
F0.1726945411762711
aF0.6425202925163355
aa(lp1921
F0.1835555432547643
aF0.6118318901066502
aa(lp1922
F0.21783226268779315
aF0.609326193122361
aa(lp1923
F0.24031606532331667
aF0.6338268625277845
aa(lp1924
F0.21863195044051295
aF0.650911455927678
aa(lp1925
F0.2399213652714626
aF0.6640446505835773
aa(lp1926
F0.24259590632629405
aF0.6932312714705023
aa(lp1927
F0.2443005034431871
aF0.6844532330340376
aa(lp1928
F0.22106944895408004
aF0.686421212661749
aa(lp1929
F0.21561527000612002
aF0.6784200510790579
aa(lp1930
F0.2360654753171773
aF0.696441516371532
aa(lp1931
F0.25443064739754195
aF0.7064968825561695
aa(lp1932
F0.23951220773003873
aF0.7418467879186751
aa(lp1933
F0.2541802016144974
aF0.7650449741109286
aa(lp1934
F0.2518331465732348
aF0.765532986895509
aa(lp1935
F0.2776948768497596
aF0.7542347229356229
aa(lp1936
F0.29552607941180814
aF0.7427473280427082
aa(lp1937
F0.30283538419962236
aF0.7547099838722934
aa(lp1938
F0.3259311214602718
aF0.7341744437249609
aa(lp1939
F0.3187686751600352
aF0.7319422869013091
aa(lp1940
F0.30671689975379507
aF0.7299567283802225
aa(lp1941
F0.31974499916580085
aF0.6998936163124163
aa(lp1942
F0.31817923989571245
aF0.7290337309588303
aa(lp1943
F0.29749500302437193
aF0.7291834984534692
aa(lp1944
F0.2807617837401291
aF0.7374664437918463
aa(lp1945
F0.26491056281544395
aF0.7710659201800518
aa(lp1946
F0.2576092780403449
aF0.7795725899390132
aa(lp1947
F0.27495372363737125
aF0.7666452339148696
aa(lp1948
F0.29468354206320324
aF0.7683479429305939
aa(lp1949
F0.31038823442824154
aF0.7705751593565399
aa(lp1950
F0.2815880202700437
aF0.7684432698926641
aa(lp1951
F0.27920671753376014
aF0.7557186363616561
aa(lp1952
F0.29172121214212954
aF0.7466413575112888
aa(lp1953
F0.27519622901916113
aF0.6953273627434226
aa(lp1954
F0.24273466019474677
aF0.725651075871119
aa(lp1955
F0.251982443818064
aF0.7439351736510286
aa(lp1956
F0.25806064589007466
aF0.7566880247561625
aa(lp1957
F0.25931940133131315
aF0.7690763186690937
aa(lp1958
F0.27170881117073636
aF0.7895381057639579
aa(lp1959
F0.2962312210702485
aF0.8412108661884864
aa(lp1960
F0.313121113766559
aF0.8074846617195779
aa(lp1961
F0.32775298050287144
aF0.7943181827885594
aa(lp1962
F0.3316128882577542
aF0.8053264325431707
aa(lp1963
F0.31398844550960237
aF0.8165646446642368
aa(lp1964
F0.32081514350122087
aF0.8024921619834496
aa(lp1965
F0.33726692411771575
aF0.7707531729870899
aa(lp1966
F0.2951147123198265
aF0.7920701363109438
aa(lp1967
F0.3058502500921038
aF0.8119571725081968
aa(lp1968
F0.2728598707158385
aF0.7935833998681953
aa(lp1969
F0.27639444861989054
aF0.7533181063452926
aa(lp1970
F0.30399221457627695
aF0.7385254759918897
aa(lp1971
F0.30513698651953564
aF0.7256416683858861
aa(lp1972
F0.28252637001887687
aF0.7485924240935373
aa(lp1973
F0.27249285776457555
aF0.7703254326708555
aa(lp1974
F0.27489647913412063
aF0.757712836937394
aa(lp1975
F0.28136694986404065
aF0.7827582421232046
aa(lp1976
F0.2318963415790004
aF0.775613055699946
aa(lp1977
F0.2463671095336551
aF0.7827796281451235
aa(lp1978
F0.23850226126545965
aF0.7825751600529678
aa(lp1979
F0.2719445558066908
aF0.8125813461394873
aa(lp1980
F0.26575134746762646
aF0.8116811308951817
aa(lp1981
F0.26248275699142487
aF0.8117962741009964
aa(lp1982
F0.2903098730396318
aF0.8290823971618377
aa(lp1983
F0.318879676255329
aF0.819368947671735
aa(lp1984
F0.32700283847206363
aF0.8128847499758814
aa(lp1985
F0.3344628930456635
aF0.8298872973595295
aa(lp1986
F0.3137157885939434
aF0.8593711929990735
aa(lp1987
F0.29629993301912866
aF0.8508232001891125
aa(lp1988
F0.2987305364529269
aF0.831798752271136
aa(lp1989
F0.3159331558562813
aF0.8234928624600397
aa(lp1990
F0.29996913520250423
aF0.8049112664603454
aa(lp1991
F0.2967653677774318
aF0.8143087592908977
aa(lp1992
F0.28325673117191735
aF0.7806179820516012
aa(lp1993
F0.32039501656894753
aF0.7771132406907574
aa(lp1994
F0.300679894173035
aF0.7920783741442345
aa(lp1995
F0.29680820556264803
aF0.7675836668960532
aa(lp1996
F0.3101343353005743
aF0.7465103064178871
aa(lp1997
F0.33156626415595497
aF0.7831063769331128
aa(lp1998
F0.32706801782601097
aF0.7786075997168307
aa(lp1999
F0.34339680585120536
aF0.7700397945128156
aa(lp2000
F0.32716921744482275
aF0.8007301559394211
aa(lp2001
F0.2922310651465412
aF0.7619154358914337
aa(lp2002
F0.2854802790258761
aF0.7616450904027047
aa(lp2003
F0.3042794602475478
aF0.7358360323968447
aa(lp2004
F0.2736605286824444
aF0.7372827426478255
aa(lp2005
F0.29267603690080146
aF0.7952166223732408
aa(lp2006
F0.31240405161459417
aF0.8026878807179071
aa(lp2007
F0.29623026371185307
aF0.8019132647094611
aa(lp2008
F0.2871664990184799
aF0.7865882785476874
aa(lp2009
F0.2885628213506815
aF0.7870089016437569
aa(lp2010
F0.30676936955635276
aF0.7320361243018709
aa(lp2011
F0.26515555833310106
aF0.7301057660118515
aa(lp2012
F0.2693000527907833
aF0.7393995302296246
aa(lp2013
F0.27463635994825447
aF0.7338451202991695
aa(lp2014
F0.27078401624487314
aF0.7253676618301644
aa(lp2015
F0.2744177779693101
aF0.7504171436150684
aa(lp2016
F0.30480960571901794
aF0.759133030372086
aa(lp2017
F0.3072608404964561
aF0.7721199203754555
aa(lp2018
F0.2919998160758831
aF0.745187094786494
aaa.