(lp0
(lp1
(lp2
F0.6356269214294064
aF-0.12044188368950531
aa(lp3
F0.5965795917883606
aF-0.07867674772095888
aa(lp4
F0.64312096813657
aF0.09616103400776034
aa(lp5
F0.7178950083909186
aF0.2590320683219946
aa(lp6
F0.6443092382634206
aF0.1640243899764845
aa(lp7
F0.5552186532521206
aF0.11427859635721895
aa(lp8
F0.5196374274527396
aF0.16639018284551016
aa(lp9
F0.47433965881821705
aF0.15228328090470603
aa(lp10
F0.41528185583175453
aF0.12320161879431588
aa(lp11
F0.31585346657227004
aF0.053761576803721664
aa(lp12
F0.31741051189749864
aF0.06865774762393383
aa(lp13
F0.2703858497419906
aF0.04672607921385002
aa(lp14
F0.1980368524466355
aF0.067443762923838
aa(lp15
F0.15955179501378372
aF0.026216180025336128
aa(lp16
F0.09545877651509616
aF-0.042775196289261075
aa(lp17
F0.04273019709119349
aF-0.11761556873662136
aa(lp18
F0.02391138149049739
aF-0.06408727864868927
aa(lp19
F0.050988059598613106
aF0.03667118292188551
aa(lp20
F0.026800921014213913
aF0.183391240832248
aa(lp21
F0.02177039249181735
aF0.27095926863482356
aa(lp22
F0.03858797791598892
aF0.41070949080486685
aa(lp23
F0.015006304474973687
aF0.3487779644832308
aa(lp24
F0.02913102589313317
aF0.3209150118826051
aa(lp25
F0.08203095971949702
aF0.4166728762669149
aa(lp26
F0.11917837300959047
aF0.4111939053529792
aa(lp27
F0.09137980119953125
aF0.5008189691630183
aa(lp28
F0.12034982513657175
aF0.5560144553036741
aa(lp29
F0.15574071298466838
aF0.5748409590058264
aa(lp30
F0.1994977126990051
aF0.6587441302540366
aa(lp31
F0.216022730772333
aF0.681364434690608
aa(lp32
F0.27562837381757926
aF0.6634802910111633
aa(lp33
F0.24963287867766742
aF0.6520197073124907
aa(lp34
F0.2958015827902899
aF0.7558120209936469
aa(lp35
F0.32172688054221193
aF0.821706098070189
aa(lp36
F0.3577843062248647
aF0.885460004456944
aa(lp37
F0.36806041473318607
aF0.7983989303309214
aa(lp38
F0.3313377329893619
aF0.8069953894112394
aa(lp39
F0.307486134979664
aF0.7467021645374424
aa(lp40
F0.27762553717574756
aF0.8190111021682615
aa(lp41
F0.23675708497341197
aF0.6628575479665539
aa(lp42
F0.20224113275439273
aF0.6101610673842304
aa(lp43
F0.25233675639390285
aF0.6753893271567262
aa(lp44
F0.24899695449856238
aF0.602143436654605
aa(lp45
F0.2159437784156303
aF0.679813402643449
aa(lp46
F0.24406845374407624
aF0.7338027516905469
aa(lp47
F0.2464613652066697
aF0.6740180128918464
aa(lp48
F0.2187027650186687
aF0.6588680960438269
aa(lp49
F0.18071339764085695
aF0.6026089819392372
aa(lp50
F0.2879622328450443
aF0.6972782396268004
aa(lp51
F0.31816801969460734
aF0.7107942605145902
aa(lp52
F0.32182315216015045
aF0.8945817330045606
aa(lp53
F0.38960736199647905
aF0.938417695711669
aa(lp54
F0.42283390647613855
aF0.9533600382103731
aa(lp55
F0.42501879908243273
aF0.952942648839872
aa(lp56
F0.47785751232144597
aF0.9855409995637033
aa(lp57
F0.4195102406985483
aF1.0429906583356623
aa(lp58
F0.43761874505852905
aF1.0555803939457398
aa(lp59
F0.4414719337061827
aF0.976590162567381
aa(lp60
F0.43572685737541095
aF0.9542427600484106
aa(lp61
F0.43945267627419793
aF0.9124772949291861
aa(lp62
F0.38050317615511003
aF1.0065434350005256
aa(lp63
F0.3790651389826966
aF0.9686111881366424
aa(lp64
F0.37695118037680164
aF0.935869844809798
aa(lp65
F0.36334782247789693
aF0.914102286940099
aa(lp66
F0.3719484548941018
aF0.9674560705947234
aa(lp67
F0.35022777832805235
aF0.9422833631490397
aa(lp68
F0.3481964201014817
aF0.9533811169811317
aa(lp69
F0.3519444871671289
aF0.9391199387904849
aa(lp70
F0.38824620047915026
aF0.875374682283294
aa(lp71
F0.3657091631623897
aF0.9193003183476066
aa(lp72
F0.3494820023328812
aF0.7657509405215497
aa(lp73
F0.2795326305550202
aF0.7944301762703163
aa(lp74
F0.20860875649838667
aF0.7472568691462197
aa(lp75
F0.15832651674888282
aF0.6026655908755877
aa(lp76
F0.22067808024771057
aF0.6533739444523328
aa(lp77
F0.22656995647646236
aF0.7011801083126916
aa(lp78
F0.20033222086220676
aF0.6944846408415609
aa(lp79
F0.2428445629539204
aF0.5922071761740664
aa(lp80
F0.3310328404031627
aF0.6967269550765115
aa(lp81
F0.3277658674271128
aF0.6530961905427733
aa(lp82
F0.3581123016404141
aF0.8605681496428976
aa(lp83
F0.3568923848682204
aF0.8722206073149554
aa(lp84
F0.3848095633956562
aF0.910289170648718
aa(lp85
F0.3040524868217239
aF0.7887231979928488
aa(lp86
F0.29268494221149444
aF0.7421869911743164
aa(lp87
F0.2917533017910896
aF0.7655086259923498
aa(lp88
F0.23954628728471258
aF0.7553554001613724
aa(lp89
F0.30808460593636816
aF0.7071874958927923
aa(lp90
F0.3376472188878424
aF0.758391101011422
aa(lp91
F0.24256096460120466
aF0.6246682416235647
aa(lp92
F0.24038620796457233
aF0.6292479318371206
aa(lp93
F0.1882725706264598
aF0.6000365513994023
aa(lp94
F0.25336514964242346
aF0.7309608966506288
aa(lp95
F0.20050452031100227
aF0.6510348168865311
aa(lp96
F0.1683663862645319
aF0.5333297565456239
aa(lp97
F0.13870076025060196
aF0.5547665401682105
aa(lp98
F0.14887007926170598
aF0.6067866238149879
aa(lp99
F0.1599191281595825
aF0.6149223487023859
aa(lp100
F0.17407299816681782
aF0.6631266120992654
aa(lp101
F0.24800662214206548
aF0.769624192398757
aa(lp102
F0.22987260896712744
aF0.638862711760576
aa(lp103
F0.21510145069514602
aF0.7089848234186245
aa(lp104
F0.2760098079071673
aF0.7372823163180193
aa(lp105
F0.28118013399487196
aF0.8032150763229554
aa(lp106
F0.27052346202268285
aF0.7418588780907007
aa(lp107
F0.36318721379944374
aF0.8528015435000234
aa(lp108
F0.34642798621916265
aF0.7844486990355329
aa(lp109
F0.3033435324664886
aF0.8244978328505065
aa(lp110
F0.21924133053869663
aF0.6188777103237735
aa(lp111
F0.30395586765438487
aF0.6686134272125424
aa(lp112
F0.3064435754818629
aF0.6925941645956964
aa(lp113
F0.2397057789973645
aF0.772765009474105
aa(lp114
F0.2490990629499543
aF0.762124842773721
aa(lp115
F0.25379213532353107
aF0.7773314752541186
aa(lp116
F0.3203104615696183
aF0.8059726044207204
aa(lp117
F0.30241942745763706
aF0.7182218565987889
aa(lp118
F0.2094190700247201
aF0.6313120660699008
aa(lp119
F0.2189115753231115
aF0.5589108321585925
aa(lp120
F0.1919098714324584
aF0.5152898532089893
aa(lp121
F0.194214720502269
aF0.6601403717019344
aa(lp122
F0.18431871501969266
aF0.5854306720162997
aa(lp123
F0.25351512631548956
aF0.7002988121522704
aa(lp124
F0.25899515170509935
aF0.7809425155350108
aa(lp125
F0.1954204863085528
aF0.6160826985881436
aa(lp126
F0.20374117016429436
aF0.7363530562752775
aa(lp127
F0.20363167792982811
aF0.6773176770966676
aa(lp128
F0.2409052563446213
aF0.7859233496069146
aa(lp129
F0.2685559352111245
aF0.8266435295886316
aa(lp130
F0.2893793846508822
aF0.7089341387780106
aa(lp131
F0.25703918851459473
aF0.7366583433600341
aa(lp132
F0.2133133547138098
aF0.6659274958402017
aa(lp133
F0.2151710921637014
aF0.594594500021716
aa(lp134
F0.19395006622262292
aF0.6214433971405781
aa(lp135
F0.22915781551702563
aF0.597686678363585
aa(lp136
F0.2395677473161738
aF0.6493207952960924
aa(lp137
F0.22885966228118465
aF0.6291000516355494
aa(lp138
F0.2172932546048548
aF0.5990297459324724
aa(lp139
F0.19467020678484098
aF0.6174736248734592
aa(lp140
F0.24547704652190763
aF0.6178550664342402
aa(lp141
F0.26718362181587874
aF0.7283052092697756
aa(lp142
F0.32294551860149756
aF0.8903651630183441
aa(lp143
F0.34547747940552515
aF0.9209315270352163
aa(lp144
F0.3066222237233178
aF0.796293321395955
aa(lp145
F0.27676388888198494
aF0.8446788762904455
aa(lp146
F0.315446816523548
aF0.7231863329016435
aa(lp147
F0.35115780504898464
aF0.7858733232943542
aa(lp148
F0.35415142877004613
aF0.8812727409765261
aa(lp149
F0.3228513714269933
aF0.7682448815409204
aa(lp150
F0.3131776081707991
aF0.7772840124976146
aa(lp151
F0.3452280416882322
aF0.850442136393012
aa(lp152
F0.34025128414920847
aF0.8071162912826091
aa(lp153
F0.3487152906570831
aF0.8380307764432008
aa(lp154
F0.33578474597876357
aF0.8600002984763326
aa(lp155
F0.3067444446321538
aF0.6861784835503868
aa(lp156
F0.3903426997438732
aF0.8313366637881805
aa(lp157
F0.31681950703221895
aF0.8267238360933459
aa(lp158
F0.3194554866188899
aF0.817898524038767
aa(lp159
F0.3114297194155837
aF0.8146536781928343
aa(lp160
F0.25434208569247024
aF0.7263720117607383
aa(lp161
F0.23883970091719547
aF0.7094802766525382
aa(lp162
F0.2942040240915704
aF0.7230744688781671
aa(lp163
F0.2837618211426126
aF0.6983867079982968
aa(lp164
F0.2844111168831167
aF0.808508704136045
aa(lp165
F0.3024460662845463
aF0.7874714186968536
aa(lp166
F0.33231460080241565
aF0.8958331522562182
aa(lp167
F0.3439961571396327
aF0.9071031556895466
aa(lp168
F0.3851531010839185
aF0.9134562171087716
aa(lp169
F0.387277475703493
aF0.9023942147846691
aa(lp170
F0.33400720068717793
aF0.869600610200615
aa(lp171
F0.3368902350917561
aF0.8522868359307955
aa(lp172
F0.3149424978891184
aF0.8880394391883423
aa(lp173
F0.36666926988895654
aF0.8904679698323225
aa(lp174
F0.3475714775016732
aF0.8309526121544057
aa(lp175
F0.41554589824741295
aF0.940609187922722
aa(lp176
F0.4202263421914506
aF0.9047726627852688
aa(lp177
F0.363192662526532
aF0.8683562757186201
aa(lp178
F0.3534053886952534
aF0.8721877970292725
aa(lp179
F0.3314031883737392
aF0.8087120954062734
aa(lp180
F0.3425721043479965
aF0.8471862974885868
aa(lp181
F0.3218903434080137
aF0.797069770544683
aa(lp182
F0.31128091433102306
aF0.8438053354749437
aa(lp183
F0.3008101994724803
aF0.897271485724168
aa(lp184
F0.32463298529758083
aF0.7828347540772198
aa(lp185
F0.3768134336145758
aF0.8324394218422286
aa(lp186
F0.2999481924833622
aF0.7618761569301195
aa(lp187
F0.30396275879904655
aF0.7721153525564741
aa(lp188
F0.30120987955958284
aF0.726608902396949
aa(lp189
F0.29301617372671335
aF0.8036101190844237
aa(lp190
F0.3059203667814957
aF0.7780860126860742
aa(lp191
F0.2845396188987733
aF0.8045230291397605
aa(lp192
F0.2639548498208661
aF0.7657659618589784
aa(lp193
F0.24572362334368833
aF0.6463543356247162
aa(lp194
F0.26069631189377035
aF0.6961812593320594
aa(lp195
F0.2662052479894733
aF0.7046944731431724
aa(lp196
F0.276579632005698
aF0.6822234366995646
aa(lp197
F0.26719570958389505
aF0.7244467442060235
aa(lp198
F0.2803984602503781
aF0.8008698673087987
aa(lp199
F0.29045675255782877
aF0.738421666216368
aa(lp200
F0.2543645653594562
aF0.6782239683661455
aa(lp201
F0.325115683798282
aF0.8127662134948692
aa(lp202
F0.31404407449916427
aF0.7161179753972566
aa(lp203
F0.24242658819793955
aF0.7456787246572985
aa(lp204
F0.2515891687413422
aF0.8053184959966544
aa(lp205
F0.3326735240672755
aF0.7627348612444061
aa(lp206
F0.39170074307451636
aF0.8668440749797258
aa(lp207
F0.3493451563959288
aF0.791247847406386
aa(lp208
F0.3442681081609237
aF0.8243495249896645
aa(lp209
F0.3043145742918049
aF0.90148439309407
aa(lp210
F0.29222113327753424
aF0.8515333849219633
aa(lp211
F0.2975062216220527
aF0.7948952917052833
aa(lp212
F0.27882755780597246
aF0.676230429102041
aa(lp213
F0.28705814776331207
aF0.6600294313984423
aa(lp214
F0.26463937096658485
aF0.6646188408616064
aa(lp215
F0.3098811236671206
aF0.7152219154979104
aa(lp216
F0.25559460486331315
aF0.8014098069129001
aa(lp217
F0.2426802633403817
aF0.7678662614358137
aa(lp218
F0.2800308915535751
aF0.7605307260546037
aa(lp219
F0.33211289072455064
aF0.8517581858929566
aa(lp220
F0.32995048729368776
aF0.9157107774137413
aa(lp221
F0.36425278413219236
aF0.7597516522544884
aa(lp222
F0.4080588480713496
aF1.0115225983428575
aa(lp223
F0.3822895666498209
aF0.9898282583426724
aa(lp224
F0.386718448132193
aF0.8499470986549746
aa(lp225
F0.35965072633172335
aF0.8758273846792645
aa(lp226
F0.30159478878557955
aF0.7993608670993704
aa(lp227
F0.30564476372923344
aF0.7226776995050763
aa(lp228
F0.28755909966359977
aF0.6801250057434212
aa(lp229
F0.31439914485791026
aF0.7266293547541774
aa(lp230
F0.3170512575195804
aF0.7448747592884544
aa(lp231
F0.35203772634037395
aF0.8432949405609835
aa(lp232
F0.3476742459809798
aF0.7706344336979242
aa(lp233
F0.28582934474241795
aF0.7625788906917323
aa(lp234
F0.3133666518316933
aF0.8255912978441552
aa(lp235
F0.30310209511366476
aF0.7503526450199457
aa(lp236
F0.2536980079616183
aF0.6647746673183438
aa(lp237
F0.16775460371559137
aF0.6090035751263738
aa(lp238
F0.21093602001799713
aF0.5357481140162196
aa(lp239
F0.10250492909173793
aF0.484533700984679
aa(lp240
F0.1082327173580316
aF0.5370455177640763
aa(lp241
F0.13769488463067356
aF0.5311320058217437
aa(lp242
F0.09475948801613959
aF0.47059499072130273
aa(lp243
F0.11216141397292659
aF0.4809637639676402
aa(lp244
F0.1574753027257053
aF0.5697417235563301
aa(lp245
F0.18121245523172985
aF0.6634764560288577
aa(lp246
F0.15776949053384345
aF0.6105506929763234
aa(lp247
F0.1511006875115908
aF0.5287054669661746
aa(lp248
F0.22397885449121854
aF0.7297057067966926
aa(lp249
F0.2947625729814925
aF0.8146377953612791
aa(lp250
F0.3127761473238059
aF0.7125529595680112
aa(lp251
F0.3598030469841692
aF0.8455950685849423
aa(lp252
F0.37036680173560926
aF0.9069473741031362
aa(lp253
F0.3678996559387272
aF0.8141989243683654
aa(lp254
F0.43716872775296833
aF0.8633234897266082
aa(lp255
F0.3989023580096819
aF0.8338218320112496
aa(lp256
F0.35762680257404045
aF0.8222222233825482
aa(lp257
F0.3295092688425381
aF0.7547066089861953
aa(lp258
F0.37882212497931494
aF0.8857224816442785
aa(lp259
F0.3344242665182228
aF0.8023776792079307
aa(lp260
F0.2662469456322771
aF0.7190752604120451
aa(lp261
F0.3213346576950935
aF0.8040735326130358
aa(lp262
F0.3028907312345693
aF0.7689135074660802
aa(lp263
F0.2238088046488137
aF0.6192239871263211
aa(lp264
F0.22266890307869788
aF0.6493260859939827
aa(lp265
F0.17834570783429815
aF0.5548531013544034
aa(lp266
F0.23258480608125512
aF0.6030970912578953
aa(lp267
F0.2035042332290602
aF0.6704823903176396
aa(lp268
F0.22901814711398039
aF0.5615194205835924
aa(lp269
F0.23227797828587832
aF0.5558817930332941
aa(lp270
F0.24151673846738936
aF0.702524106388146
aa(lp271
F0.2349655446154446
aF0.63234958143022
aa(lp272
F0.27516126119176154
aF0.6606907852570084
aa(lp273
F0.2613065979491288
aF0.6461994677137339
aa(lp274
F0.24863825367473508
aF0.6711126002497817
aa(lp275
F0.30258886169085075
aF0.746577025078537
aa(lp276
F0.27839613988053863
aF0.694525204757047
aa(lp277
F0.24776259597076877
aF0.7052444774441419
aa(lp278
F0.25410371638692014
aF0.7402915008048623
aa(lp279
F0.25915906073372275
aF0.7213529510971114
aa(lp280
F0.28115817631960327
aF0.7967924064693837
aa(lp281
F0.3463768456960669
aF0.7922486109055442
aa(lp282
F0.24225080668633192
aF0.7503703418413795
aa(lp283
F0.30678481300105165
aF0.7900473461165253
aa(lp284
F0.27753815188183273
aF0.7860585318811827
aa(lp285
F0.26110828647954265
aF0.8337283340042647
aa(lp286
F0.231451730718219
aF0.8025574320252955
aa(lp287
F0.18379731996564302
aF0.7335310309048675
aa(lp288
F0.19975048668442863
aF0.7710473775062491
aa(lp289
F0.17060801745283577
aF0.6609054904479492
aa(lp290
F0.18614790822016872
aF0.6936179031978638
aa(lp291
F0.25303380057089064
aF0.751651732444147
aa(lp292
F0.28292289510966684
aF0.8258658784956656
aa(lp293
F0.32797706543268856
aF0.7388177236231459
aa(lp294
F0.3419025094873229
aF0.7394839971575379
aa(lp295
F0.35393798641006435
aF0.8782791101176297
aa(lp296
F0.3648903333679605
aF0.8286128867491577
aa(lp297
F0.3533979071342596
aF0.8788846284502464
aa(lp298
F0.30209689841408605
aF0.8098497204954904
aa(lp299
F0.32561220536518914
aF0.8595233103393156
aa(lp300
F0.3418824483137784
aF0.9202697373251323
aa(lp301
F0.33648940025070084
aF0.8838478356173511
aa(lp302
F0.31848281803032746
aF0.7932211294188038
aa(lp303
F0.32500436795869136
aF0.7223607453755935
aa(lp304
F0.2977957284721029
aF0.7584016163926945
aa(lp305
F0.31215590870995197
aF0.8219675124840479
aa(lp306
F0.35062577557636
aF0.8772802021855988
aa(lp307
F0.3022682117613073
aF0.7496788058615959
aa(lp308
F0.3134126624757164
aF0.7379302879226086
aa(lp309
F0.336415439250217
aF0.8154607861826145
aa(lp310
F0.342159122673415
aF0.8502127400832862
aa(lp311
F0.3424243180655792
aF0.8890170706948127
aa(lp312
F0.319808616643548
aF0.8728230144664499
aa(lp313
F0.3658277842610311
aF1.0103635979789194
aa(lp314
F0.3747115007598118
aF0.9147856406784187
aa(lp315
F0.3101248315583107
aF0.7774988591332452
aa(lp316
F0.30880099442821357
aF0.7815527619440314
aa(lp317
F0.34023720218831444
aF0.7182060574656499
aa(lp318
F0.32277147842619097
aF0.9247042163543301
aa(lp319
F0.3712406457324945
aF1.0054262457829661
aa(lp320
F0.3409232161230687
aF0.9681695517999802
aa(lp321
F0.3633484805977935
aF0.9086427757812444
aa(lp322
F0.38399509702172663
aF0.9575616375912454
aa(lp323
F0.36293221623418337
aF0.9160835221274451
aa(lp324
F0.30507715297078425
aF0.8706231599495978
aa(lp325
F0.29757436720886266
aF0.8890616950668175
aa(lp326
F0.3144527967737707
aF0.8144434685789588
aa(lp327
F0.3125544192511443
aF0.8345801065453518
aa(lp328
F0.27397592696573597
aF0.7985803789942161
aa(lp329
F0.2992961424378168
aF0.8291477919573111
aa(lp330
F0.29191504635196963
aF0.802148667629506
aa(lp331
F0.3426445661298666
aF0.7984546303324987
aa(lp332
F0.42029885832031744
aF0.9710887454503219
aa(lp333
F0.4343136756769441
aF0.8926154578453639
aa(lp334
F0.42276955598668736
aF0.9402557739564134
aa(lp335
F0.29298267112396115
aF0.8509948357516439
aa(lp336
F0.36228615819090815
aF0.9202998624981901
aa(lp337
F0.3626974743166012
aF0.8971376951432147
aa(lp338
F0.3584195355263464
aF0.9194738933373917
aa(lp339
F0.32763977799919625
aF0.7819669561362912
aa(lp340
F0.32363008331135007
aF0.7797141322341988
aa(lp341
F0.33298797132342717
aF0.8887013961805873
aa(lp342
F0.3051981921535806
aF0.8672883853463016
aa(lp343
F0.292709326864741
aF0.7622626796494713
aa(lp344
F0.29521119119966804
aF0.75062740603083
aa(lp345
F0.31285209999842656
aF0.8218014253469882
aa(lp346
F0.30541251084235915
aF0.8563369549949451
aa(lp347
F0.3324737673965745
aF0.8422781725514114
aa(lp348
F0.3698331273060731
aF0.8589890055014209
aa(lp349
F0.40812538178863217
aF0.9778560290727546
aa(lp350
F0.3998422636252012
aF0.9959612060170969
aa(lp351
F0.31190141077545364
aF0.8888520326350611
aa(lp352
F0.3356573082266674
aF0.8062758889448638
aa(lp353
F0.29611435720625134
aF0.8429656115904806
aa(lp354
F0.348910924029731
aF0.8496417930221962
aa(lp355
F0.3026782816142026
aF0.8474378592750855
aa(lp356
F0.35637291810846256
aF0.9141221256148127
aa(lp357
F0.34143458817643824
aF0.8472306994355535
aa(lp358
F0.4311224933245086
aF1.019669020505591
aa(lp359
F0.5266322885021979
aF1.0652657559499252
aa(lp360
F0.5290996257324065
aF1.0700122211345573
aa(lp361
F0.5453660437258169
aF1.00867307279378
aa(lp362
F0.47287273037123195
aF1.0406626597772137
aa(lp363
F0.4259247814067229
aF1.0613477371365856
aa(lp364
F0.4386711212345426
aF1.0498606186438793
aa(lp365
F0.441509261633757
aF0.9878741480854568
aa(lp366
F0.43393089164494647
aF0.9642892889092756
aa(lp367
F0.4010055981119862
aF0.828641117364969
aa(lp368
F0.31106618948364906
aF0.816847285113557
aa(lp369
F0.3949160315811155
aF0.9297900255197376
aa(lp370
F0.3940858742857734
aF0.8731022155374423
aa(lp371
F0.36766928674955285
aF0.9288423731692511
aa(lp372
F0.3424372652372403
aF0.9132924277052854
aa(lp373
F0.3511955385318149
aF0.9143290610361812
aa(lp374
F0.35333505446753904
aF0.9205950936518384
aa(lp375
F0.38396253046702716
aF0.9388801581975843
aa(lp376
F0.35444659334732076
aF0.8664175588257114
aa(lp377
F0.36204125008187243
aF0.8113407627112719
aa(lp378
F0.40880058333700453
aF0.891557027968066
aa(lp379
F0.4107216939978354
aF0.9216130101515743
aa(lp380
F0.41488299163226267
aF0.9374104025215805
aa(lp381
F0.36780108342681184
aF0.873319414400425
aa(lp382
F0.33868970312501206
aF0.8283685652481649
aa(lp383
F0.3343096492886434
aF0.7899604280491277
aa(lp384
F0.29576782246965144
aF0.7252611422286745
aa(lp385
F0.2586713609627906
aF0.7548713382184806
aa(lp386
F0.24151051888663108
aF0.6569103695571357
aa(lp387
F0.19671735604316173
aF0.6671366434137841
aa(lp388
F0.22795301795446649
aF0.6077889606770356
aa(lp389
F0.19909745098632886
aF0.6845688657910832
aa(lp390
F0.2121213077546914
aF0.6251680608491393
aa(lp391
F0.23706912035767796
aF0.7474550982138575
aa(lp392
F0.16677979381319813
aF0.572925060472581
aa(lp393
F0.23192461848062512
aF0.6525053114165201
aa(lp394
F0.23969466090428576
aF0.5827080246511551
aa(lp395
F0.20390521999539632
aF0.5280505695031581
aa(lp396
F0.18371696389890388
aF0.5626131058463638
aa(lp397
F0.1203603534894621
aF0.5150894275207826
aa(lp398
F0.11817274917340284
aF0.48013504208820257
aa(lp399
F0.12403360661517304
aF0.4888888568853477
aa(lp400
F0.09536214169870895
aF0.5417487817129149
aa(lp401
F0.14585719934406133
aF0.43282857204684905
aa(lp402
F0.11347715422140822
aF0.4922668842615658
aa(lp403
F0.1071022501199635
aF0.5357547839825032
aa(lp404
F0.16498006122690717
aF0.5510425691009105
aa(lp405
F0.1722215905834403
aF0.6373070942336169
aa(lp406
F0.17112087240115956
aF0.582208069936147
aa(lp407
F0.16663733366985434
aF0.536366083285313
aa(lp408
F0.15631467147747627
aF0.6354272825127057
aa(lp409
F0.204444794094459
aF0.6172778298791128
aa(lp410
F0.23636237579384156
aF0.7179303916231772
aa(lp411
F0.27618231848708985
aF0.7221401775313083
aa(lp412
F0.2531795986705875
aF0.7565444457348097
aa(lp413
F0.30810756292319236
aF0.795091702608117
aa(lp414
F0.37114498998982565
aF0.907173766090565
aa(lp415
F0.3988000230862028
aF0.9449514791043089
aa(lp416
F0.4108346967299469
aF0.8451768618676967
aa(lp417
F0.4549626530657511
aF1.0389030122277618
aa(lp418
F0.4721247150892318
aF1.0010421013888038
aa(lp419
F0.480261520784826
aF0.9699964460997048
aa(lp420
F0.49931870248091687
aF0.9837561968798729
aa(lp421
F0.355091513046344
aF0.7945998637297986
aa(lp422
F0.3278839007693097
aF0.8258027410538751
aa(lp423
F0.31065065899389
aF0.7726208837162997
aa(lp424
F0.24749448666168697
aF0.6175987519729741
aa(lp425
F0.16343735942237209
aF0.5676712653216671
aa(lp426
F0.19288991437148614
aF0.5747231689233129
aa(lp427
F0.1967877776196362
aF0.5637032321920554
aa(lp428
F0.206596643986569
aF0.5697625751848487
aa(lp429
F0.2417548502514581
aF0.6927035669193021
aa(lp430
F0.1947653102877506
aF0.6713292077634233
aa(lp431
F0.2504600494385523
aF0.7623996073794941
aa(lp432
F0.2718083904220019
aF0.6562454091667035
aa(lp433
F0.37968237107591674
aF0.7480239267223838
aa(lp434
F0.3425224391394264
aF0.9645792871709746
aa(lp435
F0.32124626926964944
aF0.9182655700979613
aa(lp436
F0.3452373911249197
aF0.9552742294580882
aa(lp437
F0.4068247461169072
aF0.991282600610926
aa(lp438
F0.36856301914542716
aF0.9470731878792109
aa(lp439
F0.38330562095490295
aF0.9063014221887673
aa(lp440
F0.3824419429977163
aF0.8806055237776591
aa(lp441
F0.34462350148586185
aF0.8414958860084052
aa(lp442
F0.3592598044776863
aF0.9016964812050116
aa(lp443
F0.40178734523421955
aF0.9500768494609103
aa(lp444
F0.4337610221823233
aF0.9820816418984506
aa(lp445
F0.4058189499992227
aF0.9156229428485827
aa(lp446
F0.3666249694798307
aF0.8961476376889668
aa(lp447
F0.3977936137977606
aF0.8564733827079565
aa(lp448
F0.36062967204987534
aF0.9624979855181326
aa(lp449
F0.3232293702314433
aF0.9207732108013315
aa(lp450
F0.32521544575978084
aF0.818348111721317
aa(lp451
F0.2883078864529111
aF0.7148189808341308
aa(lp452
F0.26457954013499274
aF0.6838452208980691
aa(lp453
F0.23764023803966894
aF0.7039401759594122
aa(lp454
F0.20676533359493415
aF0.6363858165110974
aa(lp455
F0.2215217149228104
aF0.6996342253075426
aa(lp456
F0.16621155115912484
aF0.5463529279480592
aa(lp457
F0.13482759903756192
aF0.45633154247762675
aa(lp458
F0.12669598573592195
aF0.4840729478936036
aa(lp459
F0.11230676115464598
aF0.4136019258403983
aa(lp460
F0.15492876098725156
aF0.5187592895217303
aa(lp461
F0.2100945719700546
aF0.7178628483623934
aa(lp462
F0.22328375989682328
aF0.6679676664919726
aa(lp463
F0.2548025526653281
aF0.6676282834906139
aa(lp464
F0.16687076327487083
aF0.6572279368445404
aa(lp465
F0.17130565754836824
aF0.6188408338975726
aa(lp466
F0.1939291537076553
aF0.6349183735479881
aa(lp467
F0.17150493720837434
aF0.5644620166499612
aa(lp468
F0.1541638357875386
aF0.5263868018844449
aa(lp469
F0.1442532469825913
aF0.5343520086536799
aa(lp470
F0.2098284616364112
aF0.6083066942691013
aa(lp471
F0.239985953803969
aF0.6616951467856835
aa(lp472
F0.2515367086952805
aF0.7377740750417268
aa(lp473
F0.1995244834286527
aF0.6437663142633439
aa(lp474
F0.14818502494241073
aF0.5516108713819026
aa(lp475
F0.22920632045829772
aF0.596905826004757
aa(lp476
F0.2090929991629732
aF0.6252649554111724
aa(lp477
F0.24262517402102657
aF0.67231729772069
aa(lp478
F0.2330578415239215
aF0.6688997747935089
aa(lp479
F0.2918032217204323
aF0.7253871989376182
aa(lp480
F0.3038309325124329
aF0.7249898117273935
aa(lp481
F0.2827379347573416
aF0.8255114461897237
aa(lp482
F0.3006051083608243
aF0.7899944840913791
aa(lp483
F0.29168038112211625
aF0.7705105909482293
aa(lp484
F0.30895453055849875
aF0.7234976088228753
aa(lp485
F0.2289671472181074
aF0.6815974578238364
aa(lp486
F0.21256185531992972
aF0.6849444207958653
aa(lp487
F0.1586954513314462
aF0.6936117629910652
aa(lp488
F0.2070863036694276
aF0.7107379511986788
aa(lp489
F0.2993564059725469
aF0.7617624984658343
aa(lp490
F0.27726588716266226
aF0.7804947444352545
aa(lp491
F0.2497889792634159
aF0.7409908062836693
aa(lp492
F0.29564821601270697
aF0.8120770897057419
aa(lp493
F0.3225786166707361
aF0.8684875334654157
aa(lp494
F0.3314984332210108
aF0.8522208493332335
aa(lp495
F0.2456618225323397
aF0.6742254725243038
aa(lp496
F0.1936913757246864
aF0.6576416870959668
aa(lp497
F0.27085723740207057
aF0.7184643536103952
aa(lp498
F0.29845644491351364
aF0.7219450541236488
aa(lp499
F0.2987824413433232
aF0.7822518514358296
aa(lp500
F0.28173217486962265
aF0.7491950382898638
aa(lp501
F0.24932880995122822
aF0.6924073621463827
aa(lp502
F0.21784194067049115
aF0.7526395172694047
aa(lp503
F0.23947750523748307
aF0.6473798325677166
aa(lp504
F0.24660465750017835
aF0.6709183369346573
aa(lp505
F0.32487064712572766
aF0.8390767078114845
aa(lp506
F0.28405924949296757
aF0.6737196109290945
aa(lp507
F0.2822314614879085
aF0.7233610794019891
aa(lp508
F0.2565345869990219
aF0.6721782454368549
aa(lp509
F0.2964672327992671
aF0.6902400237694437
aa(lp510
F0.2831973859453467
aF0.8211378413726071
aa(lp511
F0.32212317466265794
aF0.7617352145803677
aa(lp512
F0.3843093578986201
aF0.8764925309887135
aa(lp513
F0.31924631150903665
aF0.8939327042342473
aa(lp514
F0.32773568059104774
aF0.8941810586677775
aa(lp515
F0.32961785329837434
aF0.8792428819044384
aa(lp516
F0.2276102474204083
aF0.7141270182067236
aa(lp517
F0.24151415085801758
aF0.7116728093164334
aa(lp518
F0.2556651851306558
aF0.7400328113520531
aa(lp519
F0.2641712473408506
aF0.6953367813215681
aa(lp520
F0.31012927561410397
aF0.847264234205786
aa(lp521
F0.3049023250320149
aF0.764993779970119
aa(lp522
F0.26134820242729095
aF0.7451675092106423
aa(lp523
F0.2652491384255099
aF0.6592742610477751
aa(lp524
F0.3031987103608225
aF0.6998099914175168
aa(lp525
F0.2641430771173504
aF0.6246170912954173
aa(lp526
F0.2604826298091401
aF0.714954723241013
aa(lp527
F0.272603228155553
aF0.8156200740298399
aa(lp528
F0.32414275536558973
aF0.7128749708565586
aa(lp529
F0.3015392221253832
aF0.7475547215777503
aa(lp530
F0.3761826478917626
aF0.8116584106559297
aa(lp531
F0.32955354496394595
aF0.7554896335901058
aa(lp532
F0.2717159811483465
aF0.8034425005500935
aa(lp533
F0.2600640713226496
aF0.7229912702918102
aa(lp534
F0.28134809266274535
aF0.7993982471753522
aa(lp535
F0.32026273048475506
aF0.8407844451795209
aa(lp536
F0.27684569288988503
aF0.6902868242737518
aa(lp537
F0.23759266464424655
aF0.7100531510658232
aa(lp538
F0.27677076163426606
aF0.7805169645896365
aa(lp539
F0.2695779602836548
aF0.7032042790559675
aa(lp540
F0.2765506829311837
aF0.7737483132241327
aa(lp541
F0.24117988413325328
aF0.6785802104842962
aa(lp542
F0.2334745041395372
aF0.7040100824430204
aa(lp543
F0.28516466318473566
aF0.695776295503248
aa(lp544
F0.28777728586267326
aF0.7181701680576278
aa(lp545
F0.2685433418553277
aF0.6702950724620806
aa(lp546
F0.3053467936936831
aF0.7209736348046138
aa(lp547
F0.31701312601408604
aF0.8505455824274357
aa(lp548
F0.33555990926139956
aF0.8680745248142595
aa(lp549
F0.33826181795101967
aF0.8068828669436903
aa(lp550
F0.3351517659069062
aF0.868730954098055
aa(lp551
F0.3829868331723072
aF0.9346954280494578
aa(lp552
F0.353608580991148
aF0.8199795656159834
aa(lp553
F0.32052950071591657
aF0.8236970271055666
aa(lp554
F0.2783704314893466
aF0.7729517081578132
aa(lp555
F0.28212689404612235
aF0.7648327998332283
aa(lp556
F0.2678916044615387
aF0.732045733112491
aa(lp557
F0.2757810456592346
aF0.8053521533858248
aa(lp558
F0.3215718481252068
aF0.9298473019549951
aa(lp559
F0.3623420349879389
aF0.8364240435993366
aa(lp560
F0.36350327806744853
aF0.8534873947761951
aa(lp561
F0.3263717033207442
aF0.8204621030763146
aa(lp562
F0.3740513632632408
aF0.8640101958556483
aa(lp563
F0.3630611936399565
aF0.8474213694675562
aa(lp564
F0.3964292227515665
aF0.8903554424605564
aa(lp565
F0.3987816454381051
aF0.9233282946093777
aa(lp566
F0.4386139900491843
aF0.9300386245922977
aa(lp567
F0.3610013444715356
aF0.9813377647315451
aa(lp568
F0.37947624069142644
aF0.9525269709981173
aa(lp569
F0.32557002776982896
aF0.8768569237272794
aa(lp570
F0.3373971113132732
aF0.7879484706560396
aa(lp571
F0.2654476182011567
aF0.6948232113365511
aa(lp572
F0.23215787756370207
aF0.7010272844690985
aa(lp573
F0.25261306894592894
aF0.6434459397422171
aa(lp574
F0.27611666535827945
aF0.7306208910550402
aa(lp575
F0.3104230376609892
aF0.8033091629702586
aa(lp576
F0.3003063198222219
aF0.8702237695546687
aa(lp577
F0.355427616748199
aF0.7405145260442741
aa(lp578
F0.3445083631941445
aF0.7755423752216927
aa(lp579
F0.27132706804881473
aF0.7924650968581475
aa(lp580
F0.24223162161610517
aF0.7231565257948889
aa(lp581
F0.2407836845028495
aF0.6643445183761274
aa(lp582
F0.2735508598370626
aF0.7340161875375717
aa(lp583
F0.2814913361791316
aF0.7774819087901099
aa(lp584
F0.3606013954188758
aF0.7803637175874042
aa(lp585
F0.4264743217692778
aF0.8535677448606143
aa(lp586
F0.3870438353726283
aF0.7780559138626062
aa(lp587
F0.34169766961595377
aF0.8374018066407752
aa(lp588
F0.35447470257514213
aF0.849394274135886
aa(lp589
F0.32727038382104534
aF0.919061827170123
aa(lp590
F0.3422519885575729
aF0.9060809008944453
aa(lp591
F0.300862411632396
aF0.8513606919485392
aa(lp592
F0.33183720561998375
aF0.8277893039107572
aa(lp593
F0.33666034286688856
aF0.8816160993279465
aa(lp594
F0.3421701886861683
aF0.807461946623118
aa(lp595
F0.29329012427389445
aF0.8320972523278305
aa(lp596
F0.22196064786044184
aF0.7279088399701665
aa(lp597
F0.2575587776600316
aF0.785631028450015
aa(lp598
F0.2605709996788799
aF0.8207589356620532
aa(lp599
F0.2817930269143888
aF0.8665702825981085
aa(lp600
F0.31738734149373266
aF0.8351608622824532
aa(lp601
F0.30763773101510494
aF0.8760748839599606
aa(lp602
F0.3223528394562703
aF0.7491522250268489
aa(lp603
F0.3133580190403156
aF0.7307690254549486
aa(lp604
F0.34118161072952674
aF0.803392191883036
aa(lp605
F0.3120561768325767
aF0.7945286510063179
aa(lp606
F0.3295789104056176
aF0.7939725454100824
aa(lp607
F0.2578664859665266
aF0.7240279132550577
aa(lp608
F0.2659949527807694
aF0.7032459382844253
aa(lp609
F0.277286516264324
aF0.7401378431222067
aa(lp610
F0.3094933043721335
aF0.7786537190187689
aa(lp611
F0.30899546316031956
aF0.7729959095358923
aa(lp612
F0.35141221027497677
aF0.8379542894755241
aa(lp613
F0.33794743676407507
aF0.8327399470828168
aa(lp614
F0.35916827796055195
aF0.932012573405334
aa(lp615
F0.28461457798666734
aF0.8519253386183571
aa(lp616
F0.3324687720958548
aF0.8362486861679496
aa(lp617
F0.3211599765525178
aF0.7729705422884405
aa(lp618
F0.35340454087699874
aF0.9149073832291357
aa(lp619
F0.3860355622451841
aF1.0364012169703543
aa(lp620
F0.4168579368275562
aF1.0447053675557954
aa(lp621
F0.46486622254140475
aF1.0419541889576414
aa(lp622
F0.4008091471187733
aF1.017863360289931
aa(lp623
F0.3211503837826427
aF0.7932283409608264
aa(lp624
F0.233465824731225
aF0.6681718224960239
aa(lp625
F0.23302487495798152
aF0.6977355201566002
aa(lp626
F0.27324106796891984
aF0.6410824769715697
aa(lp627
F0.23177651439007282
aF0.7043561790489008
aa(lp628
F0.23045960072722058
aF0.7468795611067379
aa(lp629
F0.19059845175498588
aF0.5805389415467455
aa(lp630
F0.18338338385380498
aF0.6682804589960039
aa(lp631
F0.17954680269547202
aF0.6223124572129641
aa(lp632
F0.18926925788190055
aF0.6115300061915762
aa(lp633
F0.17787507529533927
aF0.611222412540366
aa(lp634
F0.23194131917787017
aF0.6962278481351138
aa(lp635
F0.18589415223310346
aF0.61631025492295
aa(lp636
F0.1870149290175668
aF0.5694045608585443
aa(lp637
F0.22843375871841098
aF0.731407957899126
aa(lp638
F0.2523792413995639
aF0.6131221119884361
aa(lp639
F0.2877873056753328
aF0.6709845706009447
aa(lp640
F0.27872700685048646
aF0.7422482332221461
aa(lp641
F0.308722209256907
aF0.7709443273612486
aa(lp642
F0.2731844151555152
aF0.7811116158668858
aa(lp643
F0.27257568343999156
aF0.6999804135290805
aa(lp644
F0.2662813486542333
aF0.7021357197809678
aa(lp645
F0.2900990701982603
aF0.7320689461042922
aa(lp646
F0.30345723674167563
aF0.7752414340814694
aa(lp647
F0.2769933364164787
aF0.7205786603784539
aa(lp648
F0.21802070255688077
aF0.7523300106072295
aa(lp649
F0.2605234261505324
aF0.7773729230336922
aa(lp650
F0.27026240938053625
aF0.7789182896418203
aa(lp651
F0.3105527414894406
aF0.8028543336126653
aa(lp652
F0.3301159850620512
aF0.8248401950683906
aa(lp653
F0.30848852321270154
aF0.760752457104293
aa(lp654
F0.34078938435204187
aF0.8393397982272026
aa(lp655
F0.34123387309616315
aF0.8384076408634001
aa(lp656
F0.3338976405834837
aF0.7833292519631408
aa(lp657
F0.32615548800368893
aF0.8149066175335538
aa(lp658
F0.37375195965142755
aF0.9298553892704906
aa(lp659
F0.40449999259044056
aF0.8828248264123605
aa(lp660
F0.41317989692941454
aF0.8717736161677406
aa(lp661
F0.3228107265629031
aF0.8480930130648545
aa(lp662
F0.3100878855202432
aF0.7860952852382531
aa(lp663
F0.3496943508360849
aF0.9238119372875163
aa(lp664
F0.2877966503420334
aF0.7402516868276364
aa(lp665
F0.29443178198672626
aF0.7992878930099163
aa(lp666
F0.2624606355586671
aF0.7033662511711375
aa(lp667
F0.2642397081074784
aF0.768242378049404
aa(lp668
F0.2902075823194652
aF0.7813635893140182
aa(lp669
F0.32283895317437794
aF0.8284139061185419
aa(lp670
F0.2760447434080271
aF0.7351446192724639
aa(lp671
F0.226010782864752
aF0.70616143059935
aa(lp672
F0.2582169086790418
aF0.7482458185417001
aa(lp673
F0.26161040253626394
aF0.6678595462803669
aa(lp674
F0.20211169663197348
aF0.6092676232328897
aa(lp675
F0.20986198882736004
aF0.5976287810035945
aa(lp676
F0.14843409883446917
aF0.5638409618932223
aa(lp677
F0.17154978595165465
aF0.5132571093151835
aa(lp678
F0.11561712227947671
aF0.3986687576035688
aa(lp679
F0.14233619897257577
aF0.4259991806775552
aa(lp680
F0.15947687344137335
aF0.5684578724484092
aa(lp681
F0.10888206384506618
aF0.421649556881289
aa(lp682
F0.11466546793354929
aF0.36569696131816426
aa(lp683
F0.054265563811939234
aF0.39017535432302125
aa(lp684
F0.03938817860449283
aF0.36211430957616375
aa(lp685
F0.01815537797323399
aF0.2450075532824152
aa(lp686
F0.07921948275448382
aF0.5055819922886613
aa(lp687
F0.05956530248329668
aF0.39139095749099745
aa(lp688
F0.10970558957787191
aF0.46454220770768223
aa(lp689
F0.1320684783662549
aF0.4976734035607798
aa(lp690
F0.11812158278605701
aF0.4212693811895108
aa(lp691
F0.10351524728144978
aF0.5772633119324517
aa(lp692
F0.1513454768434577
aF0.5965663415351268
aa(lp693
F0.09841901256444949
aF0.4312744280212283
aa(lp694
F0.0926239254103719
aF0.3896051828636533
aa(lp695
F0.13156458550364206
aF0.3822869568619615
aa(lp696
F0.11009722831028484
aF0.36023255188483766
aa(lp697
F0.1519814733184458
aF0.42327438207117957
aa(lp698
F0.23366277827099913
aF0.6353471082000273
aa(lp699
F0.22695251694711452
aF0.7126551628090267
aa(lp700
F0.1759147636655225
aF0.5754870544444224
aa(lp701
F0.19245202727648233
aF0.5510210896839264
aa(lp702
F0.2724020335143353
aF0.6882565676597299
aa(lp703
F0.19577269602918418
aF0.7231552752641951
aa(lp704
F0.19990608376879426
aF0.5083514457755322
aa(lp705
F0.18639765274284525
aF0.5342247996307531
aa(lp706
F0.15943292660925482
aF0.5856827100243572
aa(lp707
F0.1976057808034837
aF0.6107733866945311
aa(lp708
F0.22786956779567188
aF0.5938973961760141
aa(lp709
F0.28681923260331305
aF0.7079230250765616
aa(lp710
F0.242649642432071
aF0.7088760444594479
aa(lp711
F0.22836460972710976
aF0.7054288148642428
aa(lp712
F0.23457651704059754
aF0.6260590164554418
aa(lp713
F0.19345142947816485
aF0.7170698582377619
aa(lp714
F0.2831056032040364
aF0.6844419956070857
aa(lp715
F0.33614227189980794
aF0.7625892018246168
aa(lp716
F0.3817364239525417
aF0.8847472959669576
aa(lp717
F0.3510560817295172
aF0.7986174868441451
aa(lp718
F0.2936878186061638
aF0.8317224766418302
aa(lp719
F0.2905695196799306
aF0.721419749094355
aa(lp720
F0.33632051752626413
aF0.8373884579382955
aa(lp721
F0.3594069360415939
aF0.829971835118352
aa(lp722
F0.33975849323256424
aF0.9209180485079441
aa(lp723
F0.31647323231222096
aF0.8136917463822801
aa(lp724
F0.3240702347669999
aF0.7197649057610107
aa(lp725
F0.23455088289259618
aF0.7143040135556769
aa(lp726
F0.2908562338972902
aF0.7678084925437244
aa(lp727
F0.3204775859200465
aF0.8125244518404506
aa(lp728
F0.2960530200668788
aF0.8137484928049835
aa(lp729
F0.38853427494099846
aF0.7868111793197916
aa(lp730
F0.34436566735451246
aF0.8061652465839261
aa(lp731
F0.34472850843416425
aF0.8155066325401532
aa(lp732
F0.29353344380984286
aF0.7560339967908013
aa(lp733
F0.25839668991903536
aF0.7759022113627865
aa(lp734
F0.31745959770873816
aF0.7594865067611751
aa(lp735
F0.2985343016230232
aF0.7164718381656688
aa(lp736
F0.3089908907574968
aF0.8434300761751066
aa(lp737
F0.3287298706859729
aF0.8006829514770867
aa(lp738
F0.3291000868577893
aF0.8581066619535198
aa(lp739
F0.3249644613165439
aF0.7618164217918943
aa(lp740
F0.3273877980818116
aF0.7102909090638208
aa(lp741
F0.3674318043526189
aF0.8842750918829105
aa(lp742
F0.3955204787976737
aF0.9032694419327854
aa(lp743
F0.3627560734746174
aF0.9290779429437551
aa(lp744
F0.4006627691257256
aF0.8406958078439868
aa(lp745
F0.34278814183634443
aF0.8206642674463247
aa(lp746
F0.34120513687863013
aF0.9209840698247348
aa(lp747
F0.4020567449413372
aF0.8582970294842092
aa(lp748
F0.38560436493954037
aF1.0236740311711083
aa(lp749
F0.3926807743553563
aF0.8757008931636054
aa(lp750
F0.36424888400301847
aF0.8666161743984059
aa(lp751
F0.30909105370466244
aF0.7852700057699497
aa(lp752
F0.2690440026329287
aF0.7274539395054
aa(lp753
F0.27121097148214796
aF0.708913566654398
aa(lp754
F0.26401362956399654
aF0.7642178946262063
aa(lp755
F0.2924435241982528
aF0.6968153209545518
aa(lp756
F0.25022238453781903
aF0.686873659527503
aa(lp757
F0.2552058856595089
aF0.6868106365363028
aa(lp758
F0.3062047406611702
aF0.8230888205738688
aa(lp759
F0.26600028342028725
aF0.7781817341170811
aa(lp760
F0.25250263039513876
aF0.7277657695980597
aa(lp761
F0.23542670120895526
aF0.734191384693769
aa(lp762
F0.2126379442516177
aF0.73707393003973
aa(lp763
F0.22064166433720378
aF0.699528642979898
aa(lp764
F0.27874565484444763
aF0.7694890185287344
aa(lp765
F0.2690777880523074
aF0.841105065801449
aa(lp766
F0.3511592435058444
aF0.8571882684370732
aa(lp767
F0.357405020951155
aF0.8231872850292646
aa(lp768
F0.38204982756273276
aF0.8161138226651133
aa(lp769
F0.3965287256260378
aF0.9304916346312566
aa(lp770
F0.3541715968871561
aF0.8060255132045594
aa(lp771
F0.27680027956293324
aF0.7417964560991896
aa(lp772
F0.3391244377901801
aF0.8258717096372182
aa(lp773
F0.3901759527613257
aF0.8498169094777442
aa(lp774
F0.4075252796534551
aF0.9799001123055595
aa(lp775
F0.3591069508138013
aF0.9117057110411135
aa(lp776
F0.41012964659167317
aF0.9292521351520117
aa(lp777
F0.4077478087275767
aF0.9434788771736516
aa(lp778
F0.35869826178129766
aF0.8254951481684328
aa(lp779
F0.30294440869231054
aF0.8853466663180224
aa(lp780
F0.33614477969638645
aF0.9600703700156585
aa(lp781
F0.36287364196493066
aF0.7961800983559917
aa(lp782
F0.3162449277105215
aF0.786764152290518
aa(lp783
F0.28359708555001883
aF0.7154207383866361
aa(lp784
F0.2849487384272504
aF0.6908351703931885
aa(lp785
F0.31480142649704407
aF0.7320946351130548
aa(lp786
F0.33271897176805554
aF0.7052754130665516
aa(lp787
F0.2703115226607935
aF0.6165780539299808
aa(lp788
F0.23965739015729703
aF0.7202626698352643
aa(lp789
F0.28263470043261996
aF0.7438902566212606
aa(lp790
F0.35396072057608985
aF0.859993022260401
aa(lp791
F0.33721829424272115
aF0.8534123841183228
aa(lp792
F0.3233120576775637
aF0.7762575829321964
aa(lp793
F0.31384551683095036
aF0.8068644776146396
aa(lp794
F0.3255012645107853
aF0.8534684147159745
aa(lp795
F0.3713685557779141
aF0.9385952903569753
aa(lp796
F0.3112296256535477
aF0.8889239163423321
aa(lp797
F0.24970943940652163
aF0.7913194349138956
aa(lp798
F0.29064823019520764
aF0.7406436074908814
aa(lp799
F0.2714344799977035
aF0.7050411191195258
aa(lp800
F0.24172624119964395
aF0.6421956572340569
aa(lp801
F0.2246432864013387
aF0.5515824578107198
aa(lp802
F0.2270474150927209
aF0.6914326349937998
aa(lp803
F0.2228738084864975
aF0.6712485167183685
aa(lp804
F0.21970800391952433
aF0.7060926457285562
aa(lp805
F0.25880938496853023
aF0.6943756232209101
aa(lp806
F0.20806743689919324
aF0.6990609516700208
aa(lp807
F0.16458284228898334
aF0.5633089358183526
aa(lp808
F0.1245817998946997
aF0.5074495175497216
aa(lp809
F0.2235846424270324
aF0.7134695616264094
aa(lp810
F0.2831440954291153
aF0.765985479550536
aa(lp811
F0.2982127570100123
aF0.7172152575985761
aa(lp812
F0.34122808319351466
aF0.7114261612680794
aa(lp813
F0.2794276018548931
aF0.702358222804734
aa(lp814
F0.2836113401878184
aF0.7142946135049596
aa(lp815
F0.30119587944324305
aF0.6974490109392094
aa(lp816
F0.32004376366032233
aF0.6741960764770586
aa(lp817
F0.2813616997801254
aF0.6166582578347392
aa(lp818
F0.19918653202547842
aF0.5879138104236858
aa(lp819
F0.19812054827406125
aF0.6328177003982633
aa(lp820
F0.1714100778397621
aF0.5914925086956737
aa(lp821
F0.21239995753747162
aF0.5882424732901735
aa(lp822
F0.1562245710384059
aF0.5156992407081442
aa(lp823
F0.1862942742680806
aF0.6664414132176277
aa(lp824
F0.2161287218643139
aF0.6548562945732767
aa(lp825
F0.24164830172970483
aF0.665446773799128
aa(lp826
F0.19665268556753665
aF0.6003541871844144
aa(lp827
F0.20101902238288094
aF0.6728012399212283
aa(lp828
F0.1998029995875798
aF0.5634324528148816
aa(lp829
F0.17232594393111988
aF0.5741609477330362
aa(lp830
F0.17560694223197634
aF0.5321858894906947
aa(lp831
F0.1378035575085911
aF0.5619570049743527
aa(lp832
F0.1579821698328608
aF0.4788365249058438
aa(lp833
F0.14523878285436034
aF0.5272787632215473
aa(lp834
F0.1224419422496203
aF0.5183832962507378
aa(lp835
F0.12492567472796447
aF0.4742928644573242
aa(lp836
F0.14840478524337897
aF0.48078272552875906
aa(lp837
F0.11878451667934496
aF0.48305933403545104
aa(lp838
F0.14830759964936818
aF0.5542504994946303
aa(lp839
F0.15758563967160877
aF0.5663174680366829
aa(lp840
F0.20065220866085892
aF0.6218754682511436
aa(lp841
F0.2190080782949679
aF0.6235101889351508
aa(lp842
F0.2605571915396406
aF0.6974287218986819
aa(lp843
F0.2977526853279989
aF0.6639153527721373
aa(lp844
F0.30828784599411313
aF0.6949555096380247
aa(lp845
F0.2877651350403465
aF0.7514994230705068
aa(lp846
F0.3384415610655349
aF0.7952268834586667
aa(lp847
F0.2668719046517672
aF0.8167535710628157
aa(lp848
F0.3531369933026084
aF0.7386283890527291
aa(lp849
F0.3169488867853069
aF0.7927509832090073
aa(lp850
F0.2688719926253463
aF0.7272256786009662
aa(lp851
F0.27911732346188867
aF0.7347244845863307
aa(lp852
F0.32520246505075634
aF0.8734978212299255
aa(lp853
F0.294703848314489
aF0.716902909837011
aa(lp854
F0.32948443425001417
aF0.7498227139175244
aa(lp855
F0.3373403272652084
aF0.8065417989426614
aa(lp856
F0.3229286460506759
aF0.8286573258199036
aa(lp857
F0.34477369443069206
aF0.9370837374524071
aa(lp858
F0.4102857011722801
aF0.9959904004708849
aa(lp859
F0.36966464293896134
aF0.9742009154883399
aa(lp860
F0.3913943133450548
aF1.0544505933296027
aa(lp861
F0.4322711755445705
aF1.0349507837946743
aa(lp862
F0.46331550162724566
aF0.935824962377269
aa(lp863
F0.35570636628446584
aF0.9417564656649707
aa(lp864
F0.3422976570092092
aF0.7606638903887671
aa(lp865
F0.31810771653122477
aF0.8876870739115121
aa(lp866
F0.38625040844184044
aF0.9080948249260092
aa(lp867
F0.3979691863231767
aF0.9977682835731799
aa(lp868
F0.4354163422593996
aF1.0076066405429034
aa(lp869
F0.3889676147967006
aF0.9436641336162531
aa(lp870
F0.35257271277420177
aF0.8884133524002032
aa(lp871
F0.2983863620205981
aF0.7407560967380293
aa(lp872
F0.3409763211130853
aF0.8671916965410882
aa(lp873
F0.32565208927424416
aF0.8276953351685767
aa(lp874
F0.32448074050512216
aF0.7912017384717746
aa(lp875
F0.28843767100058165
aF0.7602800996767866
aa(lp876
F0.28210092645819257
aF0.851117496583591
aa(lp877
F0.3173353887552053
aF0.9100602703598121
aa(lp878
F0.25390257560066715
aF0.7261264422133971
aa(lp879
F0.266292406723058
aF0.7917998420401546
aa(lp880
F0.2978480416278349
aF0.7921857760632522
aa(lp881
F0.29854613306183003
aF0.8644256245323554
aa(lp882
F0.38721783720343717
aF0.9532161168225605
aa(lp883
F0.38117945430908473
aF0.9005207907484853
aa(lp884
F0.3717221274028196
aF0.8786759416455749
aa(lp885
F0.37038770905897117
aF0.9416434434242154
aa(lp886
F0.36643343028914643
aF0.9111903460704834
aa(lp887
F0.34644088363346437
aF0.7519528906840777
aa(lp888
F0.3538360352775905
aF0.8256253293845655
aa(lp889
F0.292805156894971
aF0.810468491391828
aa(lp890
F0.328044078666393
aF0.8093258400576104
aa(lp891
F0.32895654991842227
aF0.9279238110429407
aa(lp892
F0.35454667322035044
aF0.900536795804837
aa(lp893
F0.38384993319890276
aF0.8615263151485603
aa(lp894
F0.3082745875305887
aF0.7522639109184831
aa(lp895
F0.2856559481112324
aF0.7451906277365403
aa(lp896
F0.2608646655578633
aF0.7320997798612775
aa(lp897
F0.2770866342044429
aF0.7465955541545225
aa(lp898
F0.20621158105349613
aF0.5616867799324624
aa(lp899
F0.20063757594849707
aF0.5400594495926684
aa(lp900
F0.217478798582998
aF0.5665178251985433
aa(lp901
F0.212911375276518
aF0.6045085269327243
aa(lp902
F0.23887604401688706
aF0.7167414815299957
aa(lp903
F0.24610905558681728
aF0.6336523023592215
aa(lp904
F0.30406107256561643
aF0.7227469542079936
aa(lp905
F0.38328635795811056
aF0.9021446355027427
aa(lp906
F0.4006195068111542
aF0.9138938985345345
aa(lp907
F0.3742390263330327
aF0.8501026094427652
aa(lp908
F0.34822669714626653
aF0.8759670060123266
aa(lp909
F0.31070798162067936
aF0.9106916558064245
aa(lp910
F0.3414254595653998
aF0.8000321085984415
aa(lp911
F0.3003393925832174
aF0.7641189239464211
aa(lp912
F0.3354439608589228
aF0.7588394392388013
aa(lp913
F0.35289958794108983
aF0.7887467681358539
aa(lp914
F0.36039451397082917
aF0.8281257855260864
aa(lp915
F0.32049067874949977
aF0.8737096020875232
aa(lp916
F0.2791115270460851
aF0.7480299379118751
aa(lp917
F0.20139320873992914
aF0.6217009148373758
aa(lp918
F0.1811027328581141
aF0.6020449306622687
aa(lp919
F0.19634214094788097
aF0.6173489908230855
aa(lp920
F0.2627493307939893
aF0.7044874902737436
aa(lp921
F0.2875783795980996
aF0.6918773551715515
aa(lp922
F0.31536872049660086
aF0.7386098464372268
aa(lp923
F0.29682624596812524
aF0.7154279598424411
aa(lp924
F0.23960392896233598
aF0.687920653999482
aa(lp925
F0.2115285620234929
aF0.607707997181008
aa(lp926
F0.28941813596784033
aF0.7900880333799745
aa(lp927
F0.241617652284145
aF0.6984746189530863
aa(lp928
F0.22963216026041017
aF0.7120177556066273
aa(lp929
F0.23419002066773142
aF0.7403492694501694
aa(lp930
F0.2534529405388879
aF0.6496351829634607
aa(lp931
F0.22740404037030237
aF0.5993852926352039
aa(lp932
F0.249616621480703
aF0.6806391934909919
aa(lp933
F0.31963619086569456
aF0.7649781814774392
aa(lp934
F0.3455646118860915
aF0.79507706781167
aa(lp935
F0.28278856535029195
aF0.6508185883753971
aa(lp936
F0.29915113006332633
aF0.6390460708084076
aa(lp937
F0.2844912538135709
aF0.6480657177461416
aa(lp938
F0.22398430605323513
aF0.7510221749335895
aa(lp939
F0.23068179339741937
aF0.6733365424458178
aa(lp940
F0.22477867503240093
aF0.6085084469490049
aa(lp941
F0.23588696477476598
aF0.7349088181168929
aa(lp942
F0.1785813343475267
aF0.5744364643047153
aa(lp943
F0.21952099567141975
aF0.6240972206859061
aa(lp944
F0.2222114255349191
aF0.693321433789105
aa(lp945
F0.25607413328434625
aF0.6603756615894983
aa(lp946
F0.28273317042447094
aF0.77545538034338
aa(lp947
F0.3301007451362508
aF0.8105304977891428
aa(lp948
F0.31015217285402086
aF0.759895335443297
aa(lp949
F0.2957501110929426
aF0.7547615497484778
aa(lp950
F0.3041109719611346
aF0.8029700449212288
aa(lp951
F0.2008680968382696
aF0.7128646386871443
aa(lp952
F0.2799427346756088
aF0.761399676828922
aa(lp953
F0.26088872863747753
aF0.6725717702730158
aa(lp954
F0.2285086065468467
aF0.7235662420160148
aa(lp955
F0.22068839573607343
aF0.6948959729052573
aa(lp956
F0.22020097004240402
aF0.6484104566673184
aa(lp957
F0.18058892165282606
aF0.6443062240020303
aa(lp958
F0.17935136794819873
aF0.5686458278558263
aa(lp959
F0.20317050175885842
aF0.6839165741680213
aa(lp960
F0.19382720375997273
aF0.6552908405526668
aa(lp961
F0.22274114155623884
aF0.5875804385752572
aa(lp962
F0.2404286856856221
aF0.6353359761208205
aa(lp963
F0.24491973307170695
aF0.6712672694515821
aa(lp964
F0.2521146654143194
aF0.6420325952679538
aa(lp965
F0.20999915897089846
aF0.6007784156822069
aa(lp966
F0.19983329084102866
aF0.6701842185538099
aa(lp967
F0.2235778088262424
aF0.6688000052318953
aa(lp968
F0.1944735392896622
aF0.6333458752212984
aa(lp969
F0.20715990201774392
aF0.6614132420724483
aa(lp970
F0.20579586660459173
aF0.6476302679629756
aa(lp971
F0.2305632430301755
aF0.6505545390765944
aa(lp972
F0.1989297767900341
aF0.6567742253510158
aa(lp973
F0.21728023006451433
aF0.6508900973307522
aa(lp974
F0.2308480420371917
aF0.6465087291809691
aa(lp975
F0.23645341398269615
aF0.6219927731077202
aa(lp976
F0.19268928396551366
aF0.6071625444434513
aa(lp977
F0.16850844631015194
aF0.5667984195002123
aa(lp978
F0.29417023323875713
aF0.8037752334850727
aa(lp979
F0.2990665956117995
aF0.863118538748785
aa(lp980
F0.2924447603821122
aF0.801920692416627
aa(lp981
F0.307851663382902
aF0.742630416668429
aa(lp982
F0.2701576274729857
aF0.6504458464464233
aa(lp983
F0.26764937481862866
aF0.6243306909689355
aa(lp984
F0.19115586803784068
aF0.7066129187509672
aa(lp985
F0.19537811239935263
aF0.6572496100259247
aa(lp986
F0.2366456211937183
aF0.7272319466166874
aa(lp987
F0.2246906259064078
aF0.6777813475229684
aa(lp988
F0.19168522661809417
aF0.5474955600636057
aa(lp989
F0.13037800509976577
aF0.5363671496419329
aa(lp990
F0.14804408962761018
aF0.5344353002814669
aa(lp991
F0.1705419366606721
aF0.6251602229913847
aa(lp992
F0.17363103721959633
aF0.5936243388795123
aa(lp993
F0.1790861041266298
aF0.5795488474026664
aa(lp994
F0.18535397425497646
aF0.6312892905422985
aa(lp995
F0.215658973434796
aF0.6066358796946493
aa(lp996
F0.23180416928527067
aF0.6082279653434904
aa(lp997
F0.28263671611226415
aF0.7037128282667587
aa(lp998
F0.34622483953226446
aF0.7794127352115002
aa(lp999
F0.320104449839555
aF0.7674014216664594
aa(lp1000
F0.3259270393811864
aF0.7406527137250722
aa(lp1001
F0.3192389372201275
aF0.9105423985322239
aa(lp1002
F0.3296827232306327
aF0.8142319702829672
aa(lp1003
F0.3378081922180964
aF0.7694840934856668
aa(lp1004
F0.30015324389124737
aF0.7700744888907385
aa(lp1005
F0.29844915720839216
aF0.7160625952721082
aa(lp1006
F0.20701545388970466
aF0.6824725891081558
aa(lp1007
F0.24131065859566087
aF0.6118802520852427
aa(lp1008
F0.21154992815323306
aF0.6797278632904419
aa(lp1009
F0.19156284346907715
aF0.6227206636195325
aa(lp1010
F0.15822592876737634
aF0.5518448070430062
aa(lp1011
F0.17508258562998508
aF0.5510501160389019
aa(lp1012
F0.1350145574590025
aF0.5658267043408879
aa(lp1013
F0.20976278348688415
aF0.6585073405822999
aa(lp1014
F0.2716294382048817
aF0.6344838434634326
aa(lp1015
F0.23700150284088695
aF0.7087891242380955
aa(lp1016
F0.28624594302635936
aF0.7113142538507637
aa(lp1017
F0.31096996427212464
aF0.7895570882628664
aa(lp1018
F0.3356076014508481
aF0.8701536938258274
aa(lp1019
F0.2857092939094108
aF0.791994361651161
aa(lp1020
F0.2994802911631805
aF0.667221462756872
aa(lp1021
F0.3536755981104392
aF0.7730627483777133
aa(lp1022
F0.3678100790536028
aF0.9556424645178394
aa(lp1023
F0.4243935535262699
aF1.0812251278712208
aa(lp1024
F0.43936986690327456
aF0.973037544145272
aa(lp1025
F0.45552479928335515
aF1.0760203245176059
aa(lp1026
F0.41433060895297624
aF0.9310088032113242
aa(lp1027
F0.37203814181946193
aF0.9119234169824374
aa(lp1028
F0.3766664461135198
aF0.9203957484093824
aa(lp1029
F0.36941451155911564
aF0.9600671843679317
aa(lp1030
F0.3467388045962997
aF0.8247496459490111
aa(lp1031
F0.2637211062103689
aF0.7420378500170174
aa(lp1032
F0.32818461536578564
aF0.7885138951837685
aa(lp1033
F0.3728547808817761
aF0.9149685426432438
aa(lp1034
F0.37456597106943507
aF0.823885721706204
aa(lp1035
F0.3812923285232654
aF0.8607810427255832
aa(lp1036
F0.37534526664437123
aF0.8240526562224851
aa(lp1037
F0.3808057224775809
aF0.8772922583653413
aa(lp1038
F0.4209235824214344
aF0.9300796857005909
aa(lp1039
F0.4214330882330633
aF0.9429140233287138
aa(lp1040
F0.39065456679193195
aF0.8478364575435167
aa(lp1041
F0.3631295284982213
aF0.7862490968532042
aa(lp1042
F0.3186017229459779
aF0.7951931217513912
aa(lp1043
F0.2619862458573926
aF0.6444146095213287
aa(lp1044
F0.21193249712646045
aF0.6352499852374786
aa(lp1045
F0.30023115977285886
aF0.7998604240375529
aa(lp1046
F0.31508933242705656
aF0.715209216036335
aa(lp1047
F0.3462410113085404
aF0.7974226370664171
aa(lp1048
F0.3304869627037625
aF0.8278873834676758
aa(lp1049
F0.3414358907458546
aF0.8158785828164677
aa(lp1050
F0.37565103431641444
aF0.9368271989150938
aa(lp1051
F0.3461278707461355
aF0.8187603949420189
aa(lp1052
F0.3620378739859287
aF0.817265821070156
aa(lp1053
F0.3460645360875005
aF0.8658412672379195
aa(lp1054
F0.31135037111821395
aF0.8475482541989976
aa(lp1055
F0.3230073665688355
aF0.8251448398929223
aa(lp1056
F0.31136351349818714
aF0.804996098940177
aa(lp1057
F0.311679293092249
aF0.8177474703676777
aa(lp1058
F0.3438506638878647
aF0.8414001786128923
aa(lp1059
F0.2935636168522084
aF0.7182550732301825
aa(lp1060
F0.24653950122165097
aF0.6431411027067792
aa(lp1061
F0.2617777689458461
aF0.7557836489349239
aa(lp1062
F0.26302409035054297
aF0.7050711918601855
aa(lp1063
F0.22654438184030443
aF0.7205763699134269
aa(lp1064
F0.2433059507617955
aF0.7444289795162106
aa(lp1065
F0.21131036500449607
aF0.6909348352726684
aa(lp1066
F0.22124944944066854
aF0.654668597567638
aa(lp1067
F0.22975731070316144
aF0.6862431857208626
aa(lp1068
F0.22431495292182846
aF0.7247081783766004
aa(lp1069
F0.19533837451454017
aF0.6510268859929872
aa(lp1070
F0.3079470052889688
aF0.6939629513263237
aa(lp1071
F0.27640342507039095
aF0.6870843684896674
aa(lp1072
F0.3550388479833169
aF0.8202206436436964
aa(lp1073
F0.342674222704672
aF0.6946687385906902
aa(lp1074
F0.2731836704090849
aF0.7654013018975803
aa(lp1075
F0.32230037647141735
aF0.7624155877665026
aa(lp1076
F0.33965946389881085
aF0.8848826948840415
aa(lp1077
F0.370369018204598
aF0.9382574949893575
aa(lp1078
F0.3946638350597711
aF0.9249077628986518
aa(lp1079
F0.3610463466979183
aF0.8719987569369032
aa(lp1080
F0.37032006541089296
aF0.8471716383488963
aa(lp1081
F0.2843535306744221
aF0.816425993381375
aa(lp1082
F0.3256747830226625
aF0.7364227690187618
aa(lp1083
F0.24907594675340103
aF0.7208145971978264
aa(lp1084
F0.2715886673139734
aF0.6927152236736768
aa(lp1085
F0.3490576887743655
aF0.8181005435998903
aa(lp1086
F0.31407889021947377
aF0.8215065248789089
aa(lp1087
F0.2909918340488453
aF0.8258148848488055
aa(lp1088
F0.2250132253927255
aF0.7158643762128678
aa(lp1089
F0.18532567649073212
aF0.6020489858603565
aa(lp1090
F0.13895248540591082
aF0.5482830789150832
aa(lp1091
F0.1658122394747746
aF0.6345196421152298
aa(lp1092
F0.17917676644733055
aF0.5806588877177696
aa(lp1093
F0.1941788141705471
aF0.5906828673960842
aa(lp1094
F0.19916717129579498
aF0.6728925636035942
aa(lp1095
F0.2428973858947992
aF0.7370552018680532
aa(lp1096
F0.30777393651483076
aF0.8671830028480105
aa(lp1097
F0.2765425947388754
aF0.6763957816637599
aa(lp1098
F0.1721121421956997
aF0.6588157614974515
aa(lp1099
F0.21830336439294115
aF0.6275236907549755
aa(lp1100
F0.2215484768365088
aF0.6782488219891603
aa(lp1101
F0.23944840138596102
aF0.6697851496511811
aa(lp1102
F0.26287812413132416
aF0.741560569902994
aa(lp1103
F0.20885620736282376
aF0.7018695304142335
aa(lp1104
F0.2669874633297169
aF0.7644815673196763
aa(lp1105
F0.3667270451173056
aF0.861270272573199
aa(lp1106
F0.3849793686524485
aF0.8945946658726004
aa(lp1107
F0.3119105742388807
aF0.7503792803823293
aa(lp1108
F0.24979517392116932
aF0.6432563313265927
aa(lp1109
F0.2886635310196558
aF0.7567858894284185
aa(lp1110
F0.321941502203445
aF0.8385728149696003
aa(lp1111
F0.3746005134267678
aF0.9063308880751525
aa(lp1112
F0.37246560509699816
aF0.89767098494884
aa(lp1113
F0.3462586229766809
aF0.9230086967579094
aa(lp1114
F0.31299674663008176
aF0.893472311321026
aa(lp1115
F0.2729768406018998
aF0.7907002574294366
aa(lp1116
F0.279628724761061
aF0.6400700017004023
aa(lp1117
F0.2801061884634811
aF0.6794199965171974
aa(lp1118
F0.26426939574037356
aF0.7225091547853482
aa(lp1119
F0.27684474301969403
aF0.6910395609666805
aa(lp1120
F0.30580590887387066
aF0.7056845209602788
aa(lp1121
F0.33003431290003704
aF0.6821080653380812
aa(lp1122
F0.33695846495103965
aF0.7854960920747814
aa(lp1123
F0.31517442777753374
aF0.8469244843007546
aa(lp1124
F0.309727820307946
aF0.8365678314204139
aa(lp1125
F0.31817792180678606
aF0.8638222973071226
aa(lp1126
F0.33200452985965767
aF0.8199094188484883
aa(lp1127
F0.34992592069924655
aF0.8253496407053192
aa(lp1128
F0.3684092216251835
aF0.8179787276353297
aa(lp1129
F0.3394666230152348
aF0.8315875008250051
aa(lp1130
F0.37309962775932143
aF0.8908725384170659
aa(lp1131
F0.4115111502481095
aF0.9084518440694007
aa(lp1132
F0.4133938797454899
aF1.0311526729708804
aa(lp1133
F0.4159784823651525
aF1.0051218921749592
aa(lp1134
F0.4636797716180174
aF0.9926746761809799
aa(lp1135
F0.4466790277979388
aF1.0200134222531887
aa(lp1136
F0.47033304050766434
aF1.0150343451487354
aa(lp1137
F0.4055835130685086
aF1.047959592724731
aa(lp1138
F0.3498014406755063
aF0.9719881025998378
aa(lp1139
F0.4385244373569044
aF0.8743989829457609
aa(lp1140
F0.3769344946185617
aF0.8383945470186265
aa(lp1141
F0.29232144465753884
aF0.7341088155765394
aa(lp1142
F0.2818273290635874
aF0.6951574648219162
aa(lp1143
F0.26416411097662723
aF0.6621269073340194
aa(lp1144
F0.29664544299520895
aF0.7186778788829357
aa(lp1145
F0.2764726965973908
aF0.7542220539404879
aa(lp1146
F0.3061941209780384
aF0.7793681258536876
aa(lp1147
F0.30463997370389484
aF0.7657497677320949
aa(lp1148
F0.28822341501578186
aF0.8824806651403572
aa(lp1149
F0.35013074316301734
aF0.75351530507931
aa(lp1150
F0.25955757007941443
aF0.5926293543441978
aa(lp1151
F0.25993519352570377
aF0.6334180949704992
aa(lp1152
F0.2682337274089307
aF0.8095587251161933
aa(lp1153
F0.2535038011837651
aF0.7514791689890985
aa(lp1154
F0.23185372756413852
aF0.6328623762479353
aa(lp1155
F0.2066765665740981
aF0.5844620610620022
aa(lp1156
F0.1906139288314508
aF0.624013919573828
aa(lp1157
F0.2740371308732198
aF0.6627261037139432
aa(lp1158
F0.23237715894986083
aF0.5890274664344672
aa(lp1159
F0.23543453190699742
aF0.6293252203323783
aa(lp1160
F0.23501856841119587
aF0.5503217311589483
aa(lp1161
F0.27323806454846616
aF0.5928467557495077
aa(lp1162
F0.2654632609651344
aF0.5877154122384333
aa(lp1163
F0.30078023831214035
aF0.7128341458875055
aa(lp1164
F0.3172261691914566
aF0.7661185229920523
aa(lp1165
F0.28370909474770345
aF0.7946139251923243
aa(lp1166
F0.3540267447900035
aF0.8403373273295051
aa(lp1167
F0.3319609211849212
aF0.7938175018495005
aa(lp1168
F0.3249326103553258
aF0.8225611762014351
aa(lp1169
F0.3198416507693916
aF0.7565872627825816
aa(lp1170
F0.33262034818332537
aF0.8249671886033411
aa(lp1171
F0.375303793505188
aF0.9004057543379655
aa(lp1172
F0.2647692018109545
aF0.7626803209601893
aa(lp1173
F0.33036512212182034
aF0.7538267474697559
aa(lp1174
F0.27287122435076305
aF0.8483061770592258
aa(lp1175
F0.26929470326494764
aF0.74098918101898
aa(lp1176
F0.2099476522168798
aF0.6175102186193385
aa(lp1177
F0.21718621277148897
aF0.6893987947521297
aa(lp1178
F0.23775581258586315
aF0.7344348497381721
aa(lp1179
F0.27184051585313274
aF0.7292580929000617
aa(lp1180
F0.25948739629876094
aF0.7275325860551776
aa(lp1181
F0.30674713857558716
aF0.7743014473751338
aa(lp1182
F0.2676954570496267
aF0.7713214262215449
aa(lp1183
F0.2831920998015559
aF0.8159403221102239
aa(lp1184
F0.24422411271106087
aF0.7820110059616882
aa(lp1185
F0.25621685092827023
aF0.7275257089153008
aa(lp1186
F0.24000944652177147
aF0.6610866201179235
aa(lp1187
F0.2764441138423228
aF0.6467485789886366
aa(lp1188
F0.28766016594953453
aF0.6600042569339695
aa(lp1189
F0.25868243152603215
aF0.72152601355963
aa(lp1190
F0.27794978951222016
aF0.7551181820563745
aa(lp1191
F0.32315717310741093
aF0.7968006262567404
aa(lp1192
F0.320341646676629
aF0.7654114568332232
aa(lp1193
F0.33740804157702664
aF0.780680943730744
aa(lp1194
F0.2805267289635648
aF0.7154508682508938
aa(lp1195
F0.2599246622622086
aF0.5903977132299842
aa(lp1196
F0.22261844206338097
aF0.5884649949499023
aa(lp1197
F0.21697368723933896
aF0.6173016695751607
aa(lp1198
F0.27472919173160315
aF0.7923056573956383
aa(lp1199
F0.27829199390381865
aF0.7099466297692817
aa(lp1200
F0.31522814763263024
aF0.7467428171990752
aa(lp1201
F0.3227528589051192
aF0.7563485621632949
aa(lp1202
F0.3023686359479063
aF0.8656633998839136
aa(lp1203
F0.3024100388125832
aF0.7961999022828541
aa(lp1204
F0.2660082846491476
aF0.7349620463679323
aa(lp1205
F0.2119056266889095
aF0.6812932339398872
aa(lp1206
F0.25694582589447795
aF0.7659244128939316
aa(lp1207
F0.3000137359991242
aF0.8575660366352349
aa(lp1208
F0.33741599918608745
aF0.8417441932444819
aa(lp1209
F0.3943992281619868
aF0.9331110790254269
aa(lp1210
F0.39541847678734215
aF0.9022901897152346
aa(lp1211
F0.413207314206941
aF0.9464811634671391
aa(lp1212
F0.38521887350598694
aF0.9439063124668162
aa(lp1213
F0.2991365190094461
aF0.7611004106014
aa(lp1214
F0.31133915883031016
aF0.8735056467493032
aa(lp1215
F0.38761816867259824
aF0.8945264306623973
aa(lp1216
F0.3739440189590679
aF0.8463140515332649
aa(lp1217
F0.2315127849426423
aF0.7374488355456099
aa(lp1218
F0.24611167422109478
aF0.704308461876548
aa(lp1219
F0.25060775899919463
aF0.7546027436685974
aa(lp1220
F0.2909468763272502
aF0.827891565197002
aa(lp1221
F0.23019433222348937
aF0.7563640492731725
aa(lp1222
F0.25370087564922744
aF0.7524523362121239
aa(lp1223
F0.2694810269292533
aF0.7238267751247863
aa(lp1224
F0.20959009177885293
aF0.6928748199943099
aa(lp1225
F0.21134898365994448
aF0.602947336885782
aa(lp1226
F0.20095059466095466
aF0.6706726509403337
aa(lp1227
F0.20106925756717028
aF0.6576098196557434
aa(lp1228
F0.21633520237437784
aF0.6936496893627249
aa(lp1229
F0.21245539578947456
aF0.6437637062417892
aa(lp1230
F0.19798700605537078
aF0.574797953857699
aa(lp1231
F0.21489772374646676
aF0.5520468847019022
aa(lp1232
F0.2746835906566002
aF0.6628456687562962
aa(lp1233
F0.25335730902780046
aF0.6145656658242898
aa(lp1234
F0.3003098319144828
aF0.6941609580280081
aa(lp1235
F0.1847682125769176
aF0.6673958108125256
aa(lp1236
F0.23365932290220184
aF0.7119740800399189
aa(lp1237
F0.1700217763104628
aF0.6053138615150452
aa(lp1238
F0.207287046574057
aF0.6060277165482707
aa(lp1239
F0.27614079187386736
aF0.6778117659536637
aa(lp1240
F0.24358115457067453
aF0.6927609739004063
aa(lp1241
F0.2697936304450897
aF0.7119872516385598
aa(lp1242
F0.3154473561389104
aF0.8105026799049594
aa(lp1243
F0.31087620678404915
aF0.8007152552945922
aa(lp1244
F0.27010023816645545
aF0.8118226471728254
aa(lp1245
F0.3630885459943297
aF0.7848742277848734
aa(lp1246
F0.3904793932692417
aF0.8807029285070705
aa(lp1247
F0.29378964227869614
aF0.901117430517908
aa(lp1248
F0.3092914845921643
aF0.8454354451492485
aa(lp1249
F0.32027629393227797
aF0.8713409746950865
aa(lp1250
F0.34297477449599045
aF0.7760648498907095
aa(lp1251
F0.3540378524328992
aF0.9105457309396524
aa(lp1252
F0.35863990547905533
aF0.8932975646581138
aa(lp1253
F0.36537159319575047
aF0.8663847728293168
aa(lp1254
F0.39053710092319344
aF0.9686077501890422
aa(lp1255
F0.37290168079722236
aF0.9835132011233322
aa(lp1256
F0.40519871005822333
aF0.8864322140907995
aa(lp1257
F0.37469961902781035
aF0.8259682023362945
aa(lp1258
F0.3730765908844796
aF0.8611889274137066
aa(lp1259
F0.3873220469281873
aF0.8359290622498593
aa(lp1260
F0.4033486093297337
aF0.8920551881605375
aa(lp1261
F0.4099342397132331
aF0.9175397278291509
aa(lp1262
F0.3981242222246922
aF0.8605384114027758
aa(lp1263
F0.376407203664867
aF0.9542065786690588
aa(lp1264
F0.36315975021541563
aF0.874278939865438
aa(lp1265
F0.38542644614660454
aF0.8671294890423886
aa(lp1266
F0.3697090957945424
aF0.8704974512334688
aa(lp1267
F0.36692426376016923
aF0.8508365186153971
aa(lp1268
F0.3523850452569823
aF0.789235190452328
aa(lp1269
F0.3222344723101118
aF0.8614176779181623
aa(lp1270
F0.30277257370412974
aF0.749968928426972
aa(lp1271
F0.2947221567724227
aF0.8536203276578873
aa(lp1272
F0.32159726882909884
aF0.89513278476358
aa(lp1273
F0.29394558479730704
aF0.6791204928723373
aa(lp1274
F0.3066790690821248
aF0.778164689505841
aa(lp1275
F0.299734989566423
aF0.7068106041386757
aa(lp1276
F0.29673741381916663
aF0.7502208332597747
aa(lp1277
F0.2664812505669755
aF0.7984729892573502
aa(lp1278
F0.2372405138887039
aF0.7223480790258607
aa(lp1279
F0.30083633470229654
aF0.7273125995470416
aa(lp1280
F0.2636012882885296
aF0.7135182348725946
aa(lp1281
F0.2413657468203882
aF0.7989742871316609
aa(lp1282
F0.2664199969779365
aF0.7220011317012627
aa(lp1283
F0.23255192157355198
aF0.6402621875767706
aa(lp1284
F0.21160434174934836
aF0.6148179921663484
aa(lp1285
F0.23009375594503315
aF0.7156264838471126
aa(lp1286
F0.24163346969121657
aF0.6485316880760281
aa(lp1287
F0.24445474587970972
aF0.730250844203054
aa(lp1288
F0.2863180106377099
aF0.7441682568537572
aa(lp1289
F0.3394188237063702
aF0.7760735978308771
aa(lp1290
F0.2866222095584458
aF0.6703180220529678
aa(lp1291
F0.3521649993456555
aF0.7456026847610923
aa(lp1292
F0.27793491967359474
aF0.7587388947142557
aa(lp1293
F0.35059812965780857
aF0.8013586653419886
aa(lp1294
F0.28575954589642744
aF0.635374113176346
aa(lp1295
F0.2717666464113035
aF0.7218788127240046
aa(lp1296
F0.23409351328653233
aF0.7298379394748598
aa(lp1297
F0.29797666610682727
aF0.7903453706316002
aa(lp1298
F0.34754360817967983
aF0.7527853442722289
aa(lp1299
F0.2707848256288939
aF0.691701523312926
aa(lp1300
F0.2742823863623519
aF0.7714508157703645
aa(lp1301
F0.29510639530037475
aF0.7960620602408908
aa(lp1302
F0.29900086968398526
aF0.7590301055474982
aa(lp1303
F0.2816518184000671
aF0.7175084483605711
aa(lp1304
F0.3127713958364484
aF0.7861583773212936
aa(lp1305
F0.3614667576407229
aF0.7737385635929456
aa(lp1306
F0.398850340305622
aF0.8912446614811468
aa(lp1307
F0.4400122997578794
aF0.9572337428904975
aa(lp1308
F0.3999719341554524
aF0.9533841665727916
aa(lp1309
F0.3691657666267869
aF0.9210336021228532
aa(lp1310
F0.39849605625067924
aF0.8677205003952092
aa(lp1311
F0.3985527398230927
aF0.9769149184976247
aa(lp1312
F0.39489472438546036
aF0.8481340041113474
aa(lp1313
F0.3318543945711341
aF0.9228380073083408
aa(lp1314
F0.31493743390131834
aF0.8978726998972799
aa(lp1315
F0.3168565302620861
aF0.8245377699842227
aa(lp1316
F0.28331681963886013
aF0.7553080312221065
aa(lp1317
F0.2745477305355964
aF0.7384198413687147
aa(lp1318
F0.26144139944331524
aF0.7523287927929448
aa(lp1319
F0.2743490139443142
aF0.6804684335706889
aa(lp1320
F0.3240066298027917
aF0.7994501609579193
aa(lp1321
F0.3087711585016654
aF0.9001795664424737
aa(lp1322
F0.3276025786732836
aF0.9426221153487125
aa(lp1323
F0.35471816246593774
aF0.8474337993650776
aa(lp1324
F0.33086450975942067
aF0.8721297039504382
aa(lp1325
F0.3348301138593761
aF0.8972916637122267
aa(lp1326
F0.31276552931205326
aF0.86575170631591
aa(lp1327
F0.3318721772127811
aF0.8068283069927071
aa(lp1328
F0.341356900565738
aF0.8297964085186844
aa(lp1329
F0.3693028212018575
aF0.8426702911945465
aa(lp1330
F0.39389505214432474
aF0.9558233584400874
aa(lp1331
F0.35077342827719576
aF0.9189074011763858
aa(lp1332
F0.32198504738666006
aF0.7089239284960428
aa(lp1333
F0.3128476514739497
aF0.7954154841257466
aa(lp1334
F0.2875004028456002
aF0.7746502117263923
aa(lp1335
F0.3275180285067219
aF0.7477238394719348
aa(lp1336
F0.3742428078547249
aF0.8580318807363061
aa(lp1337
F0.31046204664340954
aF0.7923381996427427
aa(lp1338
F0.33911850439667873
aF0.8071861415281678
aa(lp1339
F0.3241400251414305
aF0.7746341121499729
aa(lp1340
F0.3069553277538683
aF0.762015513346312
aa(lp1341
F0.34717110817334673
aF0.7708533343080529
aa(lp1342
F0.364825429599295
aF0.9258627963194574
aa(lp1343
F0.3704650334746127
aF0.8051194055329577
aa(lp1344
F0.3820353828756499
aF0.8898671316452658
aa(lp1345
F0.3428432459824414
aF0.8274299208704388
aa(lp1346
F0.32501311017736073
aF0.8145042345990897
aa(lp1347
F0.3002488244940358
aF0.8071494557471197
aa(lp1348
F0.2545578079219146
aF0.758647392963559
aa(lp1349
F0.33050148314075567
aF0.7939975887318781
aa(lp1350
F0.3029545223104099
aF0.7786345187085344
aa(lp1351
F0.31206347698813897
aF0.8398342687207615
aa(lp1352
F0.2747483816505961
aF0.7016896092473683
aa(lp1353
F0.25115782306797185
aF0.6519991402583184
aa(lp1354
F0.26879998411550393
aF0.7323489938532942
aa(lp1355
F0.2921946875932996
aF0.8386024504023484
aa(lp1356
F0.3014154814921208
aF0.861589832713745
aa(lp1357
F0.3237108462236012
aF0.8350645204401725
aa(lp1358
F0.32778051368960703
aF0.8076958433138798
aa(lp1359
F0.271547146040525
aF0.691066453695779
aa(lp1360
F0.32283536712051203
aF0.8119561723314583
aa(lp1361
F0.32307015841684394
aF0.7248183467055487
aa(lp1362
F0.2742568460122732
aF0.8138640563514558
aa(lp1363
F0.3068749191120239
aF0.8026027723353579
aa(lp1364
F0.34402661868932904
aF0.813223619577168
aa(lp1365
F0.31823249708766876
aF0.8511992802613655
aa(lp1366
F0.29489686120156566
aF0.7185413278756645
aa(lp1367
F0.37333496789682535
aF0.9359918957463687
aa(lp1368
F0.3911611716823463
aF0.9608186150925693
aa(lp1369
F0.39402832258079856
aF0.9304782080227109
aa(lp1370
F0.43568480618222766
aF1.0612743526039394
aa(lp1371
F0.40926409013281023
aF0.9152018350084195
aa(lp1372
F0.33275675446529324
aF0.798991544105043
aa(lp1373
F0.30605484152995976
aF0.7409172059270275
aa(lp1374
F0.2632409238474046
aF0.7639395066900593
aa(lp1375
F0.30443193754036224
aF0.764862453252566
aa(lp1376
F0.26440327430710625
aF0.7716963960103609
aa(lp1377
F0.28046667670893694
aF0.6989263463491588
aa(lp1378
F0.2295557752024997
aF0.7037362165467762
aa(lp1379
F0.32715068638848377
aF0.8330016136218448
aa(lp1380
F0.27066876681071883
aF0.7249068723842732
aa(lp1381
F0.3049141252166669
aF0.7904215416284548
aa(lp1382
F0.33422951729444456
aF0.8243847506792679
aa(lp1383
F0.3390805456961026
aF0.864662353388394
aa(lp1384
F0.2948964545924132
aF0.7635797820508934
aa(lp1385
F0.26220476435607715
aF0.645154921434977
aa(lp1386
F0.1856139919898685
aF0.5821419725608721
aa(lp1387
F0.2455434318895226
aF0.7010054214076723
aa(lp1388
F0.2967230799289983
aF0.7622154027733349
aa(lp1389
F0.30942195038371545
aF0.895052726061283
aa(lp1390
F0.3559804277470894
aF0.9233181549417413
aa(lp1391
F0.36082553132053147
aF0.8326090008366919
aa(lp1392
F0.27144489041794556
aF0.7781431325090267
aa(lp1393
F0.34656076157160187
aF0.8065576634671072
aa(lp1394
F0.3669207090845617
aF0.7656765582925908
aa(lp1395
F0.35506539207113597
aF0.9118690789896493
aa(lp1396
F0.41505100155164143
aF0.9227870607421451
aa(lp1397
F0.37780747087411576
aF0.9531565819733278
aa(lp1398
F0.3358267450232338
aF0.8158068554448913
aa(lp1399
F0.30091805074615247
aF0.7768244320166949
aa(lp1400
F0.2997493274111436
aF0.7872173805663495
aa(lp1401
F0.28241492722487294
aF0.8576416621385183
aa(lp1402
F0.3514331836210479
aF0.8034862997233727
aa(lp1403
F0.3958762525731449
aF0.8986515658686473
aa(lp1404
F0.3745196980279253
aF0.8292950205901243
aa(lp1405
F0.333856508548531
aF0.817624925084679
aa(lp1406
F0.285766289677597
aF0.7830015825094785
aa(lp1407
F0.2945637354829994
aF0.8406489074215178
aa(lp1408
F0.2930635632035161
aF0.8149845726988659
aa(lp1409
F0.2744096340179813
aF0.7003068990910704
aa(lp1410
F0.31928527598205625
aF0.839343645618508
aa(lp1411
F0.319036217785519
aF0.8673390949299651
aa(lp1412
F0.31633779548063956
aF0.9016077386745665
aa(lp1413
F0.3694598367786561
aF0.8253652588271518
aa(lp1414
F0.4061353751525923
aF0.9416888845740073
aa(lp1415
F0.35610438991662796
aF0.8118517595051784
aa(lp1416
F0.35908071416040027
aF0.9049667011901597
aa(lp1417
F0.3492982907809269
aF0.8102674353965289
aa(lp1418
F0.27105393292353813
aF0.8126757065669045
aa(lp1419
F0.2732447161797803
aF0.7233026906428344
aa(lp1420
F0.30129078822720035
aF0.769165173730457
aa(lp1421
F0.32053787865212546
aF0.8083228972408849
aa(lp1422
F0.41751496515589054
aF0.8643656201510087
aa(lp1423
F0.2860170707122263
aF0.8599586472682862
aa(lp1424
F0.32789912949156835
aF0.9265700353161193
aa(lp1425
F0.31372161073072835
aF0.7673911965289906
aa(lp1426
F0.35819164523438796
aF0.9294181624679058
aa(lp1427
F0.32445437251947096
aF0.9133359567277602
aa(lp1428
F0.3625538426307947
aF0.8657157750924329
aa(lp1429
F0.3617840773355469
aF0.8212269289796563
aa(lp1430
F0.38834425401793926
aF0.8312710949429882
aa(lp1431
F0.38615806467757197
aF0.8629291978374346
aa(lp1432
F0.33845320877665314
aF0.8550307121619426
aa(lp1433
F0.3477143794927228
aF0.8645364887458474
aa(lp1434
F0.3656786902634098
aF0.8514911337645459
aa(lp1435
F0.30575351039565224
aF0.7357431884186589
aa(lp1436
F0.37257804610773126
aF0.8941494265930265
aa(lp1437
F0.314894561614169
aF0.8278875084967637
aa(lp1438
F0.2747849316761902
aF0.7060498357500362
aa(lp1439
F0.2728054865093699
aF0.7150290636665829
aa(lp1440
F0.2799743450158114
aF0.6881020591486512
aa(lp1441
F0.2756822309063844
aF0.6859802774752322
aa(lp1442
F0.28710792221847015
aF0.6768043635486389
aa(lp1443
F0.24526248338109302
aF0.7624389069511569
aa(lp1444
F0.2740936248311519
aF0.718297944294356
aa(lp1445
F0.24669037079395487
aF0.709262136532758
aa(lp1446
F0.24808472995673717
aF0.735484746046045
aa(lp1447
F0.2473132830968726
aF0.6777926882221513
aa(lp1448
F0.2255426230272019
aF0.7767854178751784
aa(lp1449
F0.3153979077892554
aF0.7041035270072099
aa(lp1450
F0.26815380179122206
aF0.6534925805737632
aa(lp1451
F0.21958885995075111
aF0.570890208613221
aa(lp1452
F0.19062184319142544
aF0.6626495992225687
aa(lp1453
F0.23177136598455417
aF0.7110997925949797
aa(lp1454
F0.24511557118565816
aF0.7145318868264399
aa(lp1455
F0.2716601529559588
aF0.7869656061738534
aa(lp1456
F0.25329565631741474
aF0.7378753324992599
aa(lp1457
F0.2474790425376101
aF0.7061859772087965
aa(lp1458
F0.24737359110400625
aF0.7005132493191469
aa(lp1459
F0.25917548457046435
aF0.6913311713007458
aa(lp1460
F0.20454953384407948
aF0.5754208082483031
aa(lp1461
F0.23720573969785191
aF0.5638585685096646
aa(lp1462
F0.1720322241594963
aF0.5311981652010463
aa(lp1463
F0.15764009062460904
aF0.5302896792061846
aa(lp1464
F0.1912076364113378
aF0.5951988599905168
aa(lp1465
F0.17730654152323874
aF0.5955067770091815
aa(lp1466
F0.20468928156007093
aF0.5544600363537064
aa(lp1467
F0.18885213651475444
aF0.5732563921399466
aa(lp1468
F0.19578068339161017
aF0.5451445237751464
aa(lp1469
F0.23397971529345923
aF0.5868104633507311
aa(lp1470
F0.24526420121798773
aF0.6231348983719
aa(lp1471
F0.2150446476221479
aF0.6639255178485761
aa(lp1472
F0.22911397059586724
aF0.6740809564043889
aa(lp1473
F0.272625572691211
aF0.6603388609735141
aa(lp1474
F0.2810432092562457
aF0.7850467469111798
aa(lp1475
F0.2957946959819052
aF0.7101644911640539
aa(lp1476
F0.3066377240974619
aF0.7662051550740535
aa(lp1477
F0.3281207347026293
aF0.7768308400855513
aa(lp1478
F0.34418398314897575
aF0.8039931647150453
aa(lp1479
F0.3573785683813405
aF0.8534930794691957
aa(lp1480
F0.34525227573745804
aF0.8251961464633397
aa(lp1481
F0.31859245030319006
aF0.8267203229552877
aa(lp1482
F0.35195998818975505
aF0.8359260298538237
aa(lp1483
F0.35473472519917626
aF0.8825350359887044
aa(lp1484
F0.34398519426111185
aF0.8996669657682224
aa(lp1485
F0.3420846531476175
aF0.9124773946460875
aa(lp1486
F0.37647909606149904
aF0.9672168300040593
aa(lp1487
F0.42316598670434646
aF0.9961734042523037
aa(lp1488
F0.41903361348952023
aF0.9826761989488139
aa(lp1489
F0.4641340838904351
aF1.0013307587059639
aa(lp1490
F0.39887012509940395
aF0.9834991916356897
aa(lp1491
F0.3665318650814502
aF0.9281341550714661
aa(lp1492
F0.3980619288025743
aF0.8107690099193915
aa(lp1493
F0.3832297945863884
aF0.8675128757348336
aa(lp1494
F0.387708696453095
aF0.8752239734657365
aa(lp1495
F0.3327246353474446
aF0.7633305458220607
aa(lp1496
F0.291926529477066
aF0.8014490813982329
aa(lp1497
F0.3015506761312708
aF0.7282228329991784
aa(lp1498
F0.2929416910394869
aF0.7895982301857137
aa(lp1499
F0.3669172238444565
aF0.852412412050539
aa(lp1500
F0.32814409724510696
aF0.8674870087192839
aa(lp1501
F0.3653946826212805
aF0.822396212998084
aa(lp1502
F0.40137781218735746
aF0.9609778449301609
aa(lp1503
F0.3828985630931511
aF0.8954037798155479
aa(lp1504
F0.35315694761443933
aF0.9247895132005024
aa(lp1505
F0.3980474260436818
aF0.9371047995625518
aa(lp1506
F0.3659573976400154
aF0.9537191948400393
aa(lp1507
F0.34544345555579564
aF0.8865050246367807
aa(lp1508
F0.4295085163049642
aF0.9300673902875016
aa(lp1509
F0.4272697854331042
aF0.9453301533535885
aa(lp1510
F0.41519037386290064
aF0.9978826625550874
aa(lp1511
F0.4229720333812093
aF0.9616694025252646
aa(lp1512
F0.37844366138634167
aF0.9225071924610827
aa(lp1513
F0.4023550686851213
aF0.9975405088060244
aa(lp1514
F0.42091549810839435
aF0.9229169709762759
aa(lp1515
F0.3868328710958672
aF0.9710651291827193
aa(lp1516
F0.3419439125665416
aF0.8892415906108544
aa(lp1517
F0.2927769126198835
aF0.7605168977801318
aa(lp1518
F0.2934538906407635
aF0.7002343683862208
aa(lp1519
F0.22800055247352524
aF0.7049815848803069
aa(lp1520
F0.22514199091575005
aF0.677705319701208
aa(lp1521
F0.322981002538342
aF0.7536400538800603
aa(lp1522
F0.30000658163809724
aF0.7200688771002144
aa(lp1523
F0.36516788294639585
aF0.7988197661985388
aa(lp1524
F0.31972171080641204
aF0.8897806605608916
aa(lp1525
F0.3036121341265015
aF0.7407731255772069
aa(lp1526
F0.30584787615573794
aF0.7983359408109378
aa(lp1527
F0.32531831993407284
aF0.8435904106180792
aa(lp1528
F0.24162084695556757
aF0.7787337656793588
aa(lp1529
F0.2762937818745256
aF0.7439442437695982
aa(lp1530
F0.2408404254885594
aF0.7189332711390102
aa(lp1531
F0.28706643659775377
aF0.7479203936912677
aa(lp1532
F0.32052633587905466
aF0.7731564450123333
aa(lp1533
F0.31574866315214367
aF0.779281967921034
aa(lp1534
F0.3758053368159372
aF0.9449846081885853
aa(lp1535
F0.34430381686102096
aF0.9007469736974104
aa(lp1536
F0.3607880640539994
aF0.9135275041708227
aa(lp1537
F0.36709065743384744
aF0.8337033584516339
aa(lp1538
F0.29570877140621504
aF0.7462727682471069
aa(lp1539
F0.18106556552171138
aF0.69003631611946
aa(lp1540
F0.22400194826577702
aF0.6577103058793798
aa(lp1541
F0.23069779461972306
aF0.6315608101996038
aa(lp1542
F0.2726459860291559
aF0.6524231692791549
aa(lp1543
F0.24548465323885543
aF0.6193650669071115
aa(lp1544
F0.3018135316005551
aF0.690743068921448
aa(lp1545
F0.3070695928872321
aF0.7923847225549875
aa(lp1546
F0.3236307794468783
aF0.7577707021293133
aa(lp1547
F0.2924441681313256
aF0.8371004915372947
aa(lp1548
F0.21779940495582373
aF0.7250816183999855
aa(lp1549
F0.2339675048662933
aF0.7554449138197966
aa(lp1550
F0.22969091180519816
aF0.6085658946575963
aa(lp1551
F0.20765262105395466
aF0.6899967376615689
aa(lp1552
F0.24406744892212034
aF0.6742902091544667
aa(lp1553
F0.23662525215900687
aF0.7250797810021785
aa(lp1554
F0.20680439450887805
aF0.6207884031214069
aa(lp1555
F0.2705554060269707
aF0.6905401427542202
aa(lp1556
F0.286393442164939
aF0.7351043931172827
aa(lp1557
F0.3571764402697224
aF0.7770222528331875
aa(lp1558
F0.32312577207569426
aF0.9000306044387432
aa(lp1559
F0.35123108053994273
aF0.813182870714066
aa(lp1560
F0.380806609180927
aF0.8297230092873329
aa(lp1561
F0.3160693679619184
aF0.7963273690432844
aa(lp1562
F0.31259308135015457
aF0.7553547635257696
aa(lp1563
F0.28418599578056764
aF0.7613345098083125
aa(lp1564
F0.23599194299524723
aF0.7388865524110128
aa(lp1565
F0.2224370214831195
aF0.6985676786720194
aa(lp1566
F0.200897314124379
aF0.6479998702238131
aa(lp1567
F0.28115168382567485
aF0.7032575852483146
aa(lp1568
F0.30936666962562565
aF0.7474712814451702
aa(lp1569
F0.29782806340936163
aF0.7686659953654112
aa(lp1570
F0.2796353055297796
aF0.745929635208358
aa(lp1571
F0.2860985965964596
aF0.7661989988363934
aa(lp1572
F0.2420901539344858
aF0.6937506696073917
aa(lp1573
F0.21996909738030102
aF0.7760125917870387
aa(lp1574
F0.2923246409043669
aF0.7745739284143994
aa(lp1575
F0.2450380949165149
aF0.7752497016591561
aa(lp1576
F0.2310084032612962
aF0.754121932664527
aa(lp1577
F0.20881289547033066
aF0.6817954730372786
aa(lp1578
F0.2000001574018809
aF0.6342530305845041
aa(lp1579
F0.14539405257425625
aF0.6333163370692627
aa(lp1580
F0.1430015857303996
aF0.6035804630570059
aa(lp1581
F0.15526986629002765
aF0.4914181667777595
aa(lp1582
F0.11582361264381622
aF0.52511713719914
aa(lp1583
F0.1136371799010335
aF0.4151186082568068
aa(lp1584
F0.06251923388313957
aF0.43984321416515765
aa(lp1585
F0.05547019111350067
aF0.4711844941467886
aa(lp1586
F0.08330366037971627
aF0.539632226461324
aa(lp1587
F0.08288933193750718
aF0.3702566548913131
aa(lp1588
F0.14583589349329698
aF0.3859884056653981
aa(lp1589
F0.13200352731215542
aF0.4728485062894374
aa(lp1590
F0.1497295777673573
aF0.5710629050215004
aa(lp1591
F0.1642706287394425
aF0.5759807701898392
aa(lp1592
F0.19533165161245436
aF0.5749228572766053
aa(lp1593
F0.18735917374046296
aF0.6197894141106838
aa(lp1594
F0.2894057608681272
aF0.822521026786081
aa(lp1595
F0.32194243412533824
aF0.8103912513290322
aa(lp1596
F0.36100639960732384
aF0.8458916445598431
aa(lp1597
F0.36028225473076175
aF0.8067871997759977
aa(lp1598
F0.33169710009314096
aF0.8827762831240353
aa(lp1599
F0.3787940905894548
aF0.8163373247840373
aa(lp1600
F0.37128996890146426
aF0.7839072477972158
aa(lp1601
F0.35411195642211674
aF0.9925293512233859
aa(lp1602
F0.3600107725560769
aF0.8597118297262978
aa(lp1603
F0.3114261329410179
aF0.8006744204905915
aa(lp1604
F0.2552638869036936
aF0.7232037227411433
aa(lp1605
F0.3157761864243174
aF0.8080097948972509
aa(lp1606
F0.36036731101611197
aF0.809034341880326
aa(lp1607
F0.35140626151283416
aF0.7724625628610615
aa(lp1608
F0.32891620314146297
aF0.7479258424351772
aa(lp1609
F0.3314585345619483
aF0.8159741779161264
aa(lp1610
F0.32259596805414525
aF0.8758191651720778
aa(lp1611
F0.34945862902300173
aF0.9105757701050197
aa(lp1612
F0.39990166838136354
aF0.8475047956741003
aa(lp1613
F0.38251716624736076
aF0.9247307683799927
aa(lp1614
F0.3320523212827785
aF0.6973432255854719
aa(lp1615
F0.27029528400530156
aF0.8251647058324684
aa(lp1616
F0.2758898448866432
aF0.7576094001971716
aa(lp1617
F0.3201345555069113
aF0.8381761451496621
aa(lp1618
F0.31207186429016937
aF0.8313428352290515
aa(lp1619
F0.2945771187445495
aF0.8358977474137098
aa(lp1620
F0.3454823287439783
aF0.8745238032343455
aa(lp1621
F0.4387976883665841
aF1.0198348702017719
aa(lp1622
F0.46295261903834445
aF1.0645334181816177
aa(lp1623
F0.4179420671311902
aF1.060519843164453
aa(lp1624
F0.4060384496005789
aF0.8134507451758315
aa(lp1625
F0.3927958495479998
aF0.9068825145202899
aa(lp1626
F0.3681172260434353
aF0.8184353407197215
aa(lp1627
F0.40058818819665
aF0.9060324607484493
aa(lp1628
F0.35324870697022637
aF0.8736943880415716
aa(lp1629
F0.3236586335597115
aF0.838285290270489
aa(lp1630
F0.3241502648545336
aF0.768691355807313
aa(lp1631
F0.2849236467433927
aF0.8320243201773262
aa(lp1632
F0.3269110976554718
aF0.8499469827133566
aa(lp1633
F0.3728559978622034
aF0.9124523093009802
aa(lp1634
F0.38170975025868276
aF0.8548739297634148
aa(lp1635
F0.45371656891730405
aF1.0266188482448262
aa(lp1636
F0.476860225944445
aF1.1214146787983585
aa(lp1637
F0.4234124715954437
aF1.0899046599679116
aa(lp1638
F0.42625560163430337
aF1.0518725639712672
aa(lp1639
F0.43248739307309586
aF1.0739733068826924
aa(lp1640
F0.47223240037554026
aF1.0324705761418074
aa(lp1641
F0.48990761592140825
aF1.0168740216163028
aa(lp1642
F0.4329821701697911
aF1.040982460680103
aa(lp1643
F0.4353553395590302
aF1.0122158396902925
aa(lp1644
F0.4030359069818552
aF0.9827984796386413
aa(lp1645
F0.4048852091664379
aF0.9021305346489085
aa(lp1646
F0.36702332755232375
aF0.8571090402963643
aa(lp1647
F0.3802570239775982
aF0.8327278882202457
aa(lp1648
F0.2861096362832812
aF0.7060061712114134
aa(lp1649
F0.2792653762157429
aF0.7054748118995433
aa(lp1650
F0.20890838430010067
aF0.6064260079457805
aa(lp1651
F0.21102666585421395
aF0.5977727444213429
aa(lp1652
F0.22384674342195277
aF0.5632535755936421
aa(lp1653
F0.21001763882394375
aF0.6107343298059988
aa(lp1654
F0.19542463776806998
aF0.6689568290666591
aa(lp1655
F0.20304064162843355
aF0.6189802838203229
aa(lp1656
F0.2264014806588477
aF0.6979561220558209
aa(lp1657
F0.2362197113536476
aF0.7494278554992106
aa(lp1658
F0.24888382211702464
aF0.6977751670605529
aa(lp1659
F0.23910467707113514
aF0.6122670960737323
aa(lp1660
F0.19733279856977387
aF0.6265145425796461
aa(lp1661
F0.15918581286141714
aF0.6234694287204177
aa(lp1662
F0.19530409063482754
aF0.5208263624923147
aa(lp1663
F0.1849004349163458
aF0.7459557106595791
aa(lp1664
F0.20775614138864074
aF0.6464069684910524
aa(lp1665
F0.21161235278609722
aF0.5883881968686019
aa(lp1666
F0.17858464663020424
aF0.5422621807527446
aa(lp1667
F0.15538905335068384
aF0.4806579410608032
aa(lp1668
F0.1567366886337868
aF0.5057819469340759
aa(lp1669
F0.13102275471203734
aF0.5464572848274277
aa(lp1670
F0.09172061510066298
aF0.5419572113539364
aa(lp1671
F0.13362050596654446
aF0.45644720916674286
aa(lp1672
F0.1266720316956492
aF0.5233683456710464
aa(lp1673
F0.1447576278941941
aF0.4687864797539322
aa(lp1674
F0.1563995719565432
aF0.405574695553189
aa(lp1675
F0.1210754375184192
aF0.3940551633530897
aa(lp1676
F0.09496892795624488
aF0.5594884420114139
aa(lp1677
F0.18985689414058965
aF0.6591473430405557
aa(lp1678
F0.23418397475697372
aF0.6819358174397584
aa(lp1679
F0.3193301346442596
aF0.7957004044798033
aa(lp1680
F0.28459534576992734
aF0.786693882359634
aa(lp1681
F0.3131004846312651
aF0.777627328354453
aa(lp1682
F0.25876504878794815
aF0.6966080359699963
aa(lp1683
F0.26856795780085113
aF0.7759944615298442
aa(lp1684
F0.23331882834225834
aF0.7520391814364474
aa(lp1685
F0.22714257512397368
aF0.6148655558707834
aa(lp1686
F0.2747109875303594
aF0.7864228628435923
aa(lp1687
F0.3179525036681525
aF0.8357692367592733
aa(lp1688
F0.39135486387239354
aF0.9729888394456798
aa(lp1689
F0.438459834165216
aF0.9187669608523212
aa(lp1690
F0.3369795272291274
aF0.8436542788428882
aa(lp1691
F0.3655617319251063
aF0.8085228096224424
aa(lp1692
F0.31630462274644516
aF0.7695933440767444
aa(lp1693
F0.3085294996617157
aF0.754308398929211
aa(lp1694
F0.2757731855965188
aF0.7815448762949377
aa(lp1695
F0.2790471633392883
aF0.7314825623418413
aa(lp1696
F0.25519643057914876
aF0.6567872045989904
aa(lp1697
F0.22495597057741945
aF0.6547619687288413
aa(lp1698
F0.18991421682829146
aF0.6651596756654327
aa(lp1699
F0.21257353561880604
aF0.5928617522853473
aa(lp1700
F0.20509537856699633
aF0.6097638025461296
aa(lp1701
F0.25027830017906744
aF0.731350225880836
aa(lp1702
F0.2579514538282006
aF0.71376201005925
aa(lp1703
F0.29913307404179545
aF0.7697937879740875
aa(lp1704
F0.3190679397081292
aF0.8344114355428554
aa(lp1705
F0.2870684197185914
aF0.7374815580150519
aa(lp1706
F0.2414053467973854
aF0.8153283829661213
aa(lp1707
F0.22195592072179524
aF0.7485524081323298
aa(lp1708
F0.21132908859803537
aF0.5793766025737591
aa(lp1709
F0.15768465275148788
aF0.6107687147505729
aa(lp1710
F0.21363785130786478
aF0.594048485747719
aa(lp1711
F0.1910169243729233
aF0.6576905409523588
aa(lp1712
F0.2771527388331155
aF0.6551984070023358
aa(lp1713
F0.3197742210996796
aF0.8086417054258881
aa(lp1714
F0.2967929621677463
aF0.8074402271164522
aa(lp1715
F0.2855828076430876
aF0.7153687599627314
aa(lp1716
F0.23314420322312224
aF0.7269890128934825
aa(lp1717
F0.25839607488367006
aF0.7763049200011404
aa(lp1718
F0.2978350676498473
aF0.8081546218442205
aa(lp1719
F0.28176665447904387
aF0.7322664492112939
aa(lp1720
F0.26096059066297905
aF0.7637497839265673
aa(lp1721
F0.2813479760196186
aF0.8034589709039771
aa(lp1722
F0.2797674243860737
aF0.7208323262053896
aa(lp1723
F0.267498731048219
aF0.6784949213027189
aa(lp1724
F0.21354155266806468
aF0.6918887111726466
aa(lp1725
F0.2085944836351916
aF0.6588664432206525
aa(lp1726
F0.2753878186265539
aF0.6897630099535021
aa(lp1727
F0.31688824388112125
aF0.7742206934772753
aa(lp1728
F0.27982184901386853
aF0.7498749379135454
aa(lp1729
F0.3060094895154722
aF0.7390731975167104
aa(lp1730
F0.2963412345566306
aF0.7970821598554333
aa(lp1731
F0.3146420559838635
aF0.8384416751034554
aa(lp1732
F0.2964722240173613
aF0.7962319248772229
aa(lp1733
F0.33926914267277847
aF0.7622409734120602
aa(lp1734
F0.30031355692282913
aF0.7501950595184337
aa(lp1735
F0.29903959957448034
aF0.7696546483768063
aa(lp1736
F0.24586014848065918
aF0.6834111608035457
aa(lp1737
F0.21768755827723438
aF0.6809242609765281
aa(lp1738
F0.23852495345206376
aF0.7448853589558027
aa(lp1739
F0.3205522315222932
aF0.7379239673630738
aa(lp1740
F0.2830626762774324
aF0.7467850730202535
aa(lp1741
F0.25752099445928534
aF0.7001797617415054
aa(lp1742
F0.2589734061683169
aF0.7675643928013091
aa(lp1743
F0.26626524891599096
aF0.6803908122287909
aa(lp1744
F0.2844042145428574
aF0.7149179001034566
aa(lp1745
F0.3110260259706701
aF0.7841956505724459
aa(lp1746
F0.31107382256692223
aF0.7942762558316625
aa(lp1747
F0.25946396851943365
aF0.6987096096359027
aa(lp1748
F0.20233434668534983
aF0.540208473102156
aa(lp1749
F0.22669201259068567
aF0.5692967725360312
aa(lp1750
F0.13426208265523526
aF0.5067949255589089
aa(lp1751
F0.16119985265595588
aF0.6770570654341768
aa(lp1752
F0.23191323365498967
aF0.8057439212328863
aa(lp1753
F0.23344030832077467
aF0.7868457167812352
aa(lp1754
F0.271343535127358
aF0.8197394375033825
aa(lp1755
F0.33950116849571216
aF0.8131418027689556
aa(lp1756
F0.3245250652791355
aF0.8193998422938725
aa(lp1757
F0.36004902983866693
aF0.9074245185113972
aa(lp1758
F0.2981188701755324
aF0.8102657568005674
aa(lp1759
F0.32375458188062356
aF0.8441393105375944
aa(lp1760
F0.3575314127892225
aF0.8530677031148372
aa(lp1761
F0.34214271383390665
aF0.8525065435557359
aa(lp1762
F0.3634667749417927
aF0.8519842050588491
aa(lp1763
F0.35438524605206634
aF0.7806347225560962
aa(lp1764
F0.3005230807278719
aF0.6649907698679666
aa(lp1765
F0.2905342231280791
aF0.7154852800276955
aa(lp1766
F0.31006121492998423
aF0.7275973337500694
aa(lp1767
F0.27245253916956397
aF0.6792120390824922
aa(lp1768
F0.2442831812032355
aF0.681396843669766
aa(lp1769
F0.2658050120333736
aF0.7197070688787461
aa(lp1770
F0.2520675634720028
aF0.6902524044906218
aa(lp1771
F0.28516557427299866
aF0.6435860905516627
aa(lp1772
F0.3274062998193441
aF0.7096697624726855
aa(lp1773
F0.3308210633049565
aF0.8381121112339049
aa(lp1774
F0.2899873404482751
aF0.7883964378867521
aa(lp1775
F0.2982181149191407
aF0.8325741917655124
aa(lp1776
F0.30938793393705255
aF0.7693939685061563
aa(lp1777
F0.3307562939625574
aF0.8164870968912461
aa(lp1778
F0.3464405439674659
aF0.7574736191783276
aa(lp1779
F0.38192808763145863
aF0.8996817378073055
aa(lp1780
F0.3157619034016522
aF0.8244304303918734
aa(lp1781
F0.3259026820723842
aF0.8381746875280913
aa(lp1782
F0.3414112157871118
aF0.919832278174732
aa(lp1783
F0.3998156919507797
aF0.9732875787402923
aa(lp1784
F0.3760043377015073
aF0.9038570794346839
aa(lp1785
F0.3851711723732288
aF0.8225771909288357
aa(lp1786
F0.3612900250413463
aF0.8069107194605908
aa(lp1787
F0.31312061084055814
aF0.8297622114197487
aa(lp1788
F0.286631244644721
aF0.7765921902159842
aa(lp1789
F0.2920623248649495
aF0.8356698617940344
aa(lp1790
F0.3050591027711669
aF0.7726419597562718
aa(lp1791
F0.29227132186149146
aF0.7253337127815952
aa(lp1792
F0.3480959857682192
aF0.8846783693132819
aa(lp1793
F0.3463066981858454
aF0.8279681349164185
aa(lp1794
F0.3401881318229353
aF0.8490259835709011
aa(lp1795
F0.32290018448086405
aF0.8508952262276177
aa(lp1796
F0.3434097159977736
aF0.8759092071916686
aa(lp1797
F0.31655600471543277
aF0.8100830516748848
aa(lp1798
F0.34063437485149406
aF0.869687024244195
aa(lp1799
F0.39738442060215007
aF0.8648629147946083
aa(lp1800
F0.3496653568600063
aF0.7906866316501862
aa(lp1801
F0.2838973865895303
aF0.7476107992550325
aa(lp1802
F0.30890075838972625
aF0.7993570323704658
aa(lp1803
F0.2650239427524535
aF0.750064145148475
aa(lp1804
F0.3031741081481843
aF0.8022726708519253
aa(lp1805
F0.2568444307192716
aF0.7990574747563284
aa(lp1806
F0.33154329933355486
aF0.8362647871441293
aa(lp1807
F0.2595930504281946
aF0.774862203320215
aa(lp1808
F0.3090664267094907
aF0.7947149404102719
aa(lp1809
F0.3191164516791512
aF0.7965762926891956
aa(lp1810
F0.329676956490926
aF0.8327012388342114
aa(lp1811
F0.3398804498152475
aF0.9451432666282786
aa(lp1812
F0.37091978157631117
aF0.9596534985787445
aa(lp1813
F0.33635382312746104
aF0.9552091894918765
aa(lp1814
F0.36663605992741743
aF1.0049536804867756
aa(lp1815
F0.36866983720270846
aF0.8953121266225779
aa(lp1816
F0.3498523362938076
aF0.8237548073786853
aa(lp1817
F0.38249190313796094
aF0.8444545907902647
aa(lp1818
F0.3845710999009347
aF0.8907306709823332
aa(lp1819
F0.33083290080743855
aF0.7833028433656727
aa(lp1820
F0.2882487193626298
aF0.8284758032176558
aa(lp1821
F0.2640105001207253
aF0.710570051675955
aa(lp1822
F0.34046433901894213
aF0.7453630804916801
aa(lp1823
F0.23189039522272448
aF0.7429251268298935
aa(lp1824
F0.3016399880005011
aF0.6888041830180768
aa(lp1825
F0.27404144845615735
aF0.7301266193556175
aa(lp1826
F0.23954156899221013
aF0.7560227533346594
aa(lp1827
F0.20219480128018916
aF0.675924651160358
aa(lp1828
F0.2240202360831895
aF0.6860248690348828
aa(lp1829
F0.19129895794326301
aF0.7251992315816143
aa(lp1830
F0.2568489835071023
aF0.7529984424967259
aa(lp1831
F0.25023096154999674
aF0.7673192188594353
aa(lp1832
F0.29357984096128475
aF0.8079116885925537
aa(lp1833
F0.3090205835734146
aF0.7442945877161645
aa(lp1834
F0.3100155909493289
aF0.7448188026987609
aa(lp1835
F0.28618014139581194
aF0.8258373910648966
aa(lp1836
F0.2866405335227642
aF0.6774368964359433
aa(lp1837
F0.20863245139397923
aF0.5884972590115196
aa(lp1838
F0.246633680314773
aF0.6284982657117416
aa(lp1839
F0.26432694587289307
aF0.6699909479758743
aa(lp1840
F0.30384341831785305
aF0.7151992045929587
aa(lp1841
F0.35763825300340385
aF0.7697944352662199
aa(lp1842
F0.3822536525348301
aF0.8982407792934806
aa(lp1843
F0.4285353275742323
aF0.9984932720558138
aa(lp1844
F0.34049241568123856
aF0.9282295259999317
aa(lp1845
F0.3846753631693781
aF0.9038599788977925
aa(lp1846
F0.4147601199439701
aF0.873460990339808
aa(lp1847
F0.4317033802776118
aF0.9530322746614462
aa(lp1848
F0.43278732516118434
aF0.9416947262167086
aa(lp1849
F0.38767942739091993
aF0.9417265738172796
aa(lp1850
F0.3290538162235232
aF0.8372344631491424
aa(lp1851
F0.3748934155893219
aF0.9507247220673608
aa(lp1852
F0.3988624216398254
aF0.9086195492202934
aa(lp1853
F0.3657359334598143
aF0.8657721337106119
aa(lp1854
F0.34010058382006214
aF0.821286972796752
aa(lp1855
F0.2825299279578767
aF0.8190914390703689
aa(lp1856
F0.3344746965026278
aF0.8477540391965477
aa(lp1857
F0.3586293896815031
aF0.9024788826733239
aa(lp1858
F0.27981680996550284
aF0.7931687384402255
aa(lp1859
F0.312646039014807
aF0.874411770559456
aa(lp1860
F0.4295594076874656
aF1.007482672219313
aa(lp1861
F0.3985334475035882
aF0.8664770067969532
aa(lp1862
F0.3844675452970909
aF0.8963948061163636
aa(lp1863
F0.36455029496967667
aF0.9708108708255125
aa(lp1864
F0.4054204057698877
aF0.8856283540516556
aa(lp1865
F0.35385750116369585
aF0.7971740893319466
aa(lp1866
F0.3708479252015392
aF0.8111813811393123
aa(lp1867
F0.3741340444461675
aF0.9454477944790621
aa(lp1868
F0.34906343388833644
aF0.8941737679187018
aa(lp1869
F0.21563855118257005
aF0.6337749927121737
aa(lp1870
F0.2176523938191049
aF0.5605395035424497
aa(lp1871
F0.25556718510554977
aF0.6304014859813946
aa(lp1872
F0.17833567468157213
aF0.58203609305281
aa(lp1873
F0.12886231276736243
aF0.6173770584631121
aa(lp1874
F0.09248974224258061
aF0.4974061060555205
aa(lp1875
F0.15878654136567955
aF0.46460345513821855
aa(lp1876
F0.12976917932875984
aF0.5148101692708158
aa(lp1877
F0.15504850502660775
aF0.5453207072883074
aa(lp1878
F0.1996398176703188
aF0.5633842133221233
aa(lp1879
F0.21365710349122358
aF0.6724873879716604
aa(lp1880
F0.22140130889755233
aF0.7004912769189955
aa(lp1881
F0.25250046163461637
aF0.7624780996245077
aa(lp1882
F0.25657934844913444
aF0.6662093718563026
aa(lp1883
F0.21884039161181737
aF0.6449001453232972
aa(lp1884
F0.2098084764258617
aF0.6727300227669162
aa(lp1885
F0.24667206518010684
aF0.6666408183421707
aa(lp1886
F0.2780796064278925
aF0.6631019645854324
aa(lp1887
F0.2694926505932175
aF0.799040013515009
aa(lp1888
F0.26043440632079506
aF0.673707822740836
aa(lp1889
F0.24072979150423537
aF0.6628245130351105
aa(lp1890
F0.30875231494749433
aF0.7938046767406679
aa(lp1891
F0.3219975102018094
aF0.767920074772737
aa(lp1892
F0.234721460802072
aF0.6785404518647942
aa(lp1893
F0.28819759054272465
aF0.7265338581933997
aa(lp1894
F0.33801039135645045
aF0.7991207827519196
aa(lp1895
F0.3717051588844674
aF0.8832333111081925
aa(lp1896
F0.3714387266939359
aF0.8472798440944547
aa(lp1897
F0.4318082215900235
aF0.9945694607369815
aa(lp1898
F0.39799878494394186
aF0.9116784033934523
aa(lp1899
F0.32823869013020324
aF0.8524216087632648
aa(lp1900
F0.3428282631824768
aF0.8389442333834225
aa(lp1901
F0.46197088701382316
aF1.0007882487636286
aa(lp1902
F0.4433082183455845
aF1.0961988743003352
aa(lp1903
F0.43226552242397015
aF1.0424347405897822
aa(lp1904
F0.41613101458407553
aF1.015190375851111
aa(lp1905
F0.43541868914104603
aF0.9889331018782189
aa(lp1906
F0.4351593743105145
aF0.9884851626225939
aa(lp1907
F0.4645033550784942
aF0.9884723622937897
aa(lp1908
F0.4791727393514488
aF0.9911625304116529
aa(lp1909
F0.47634358697643225
aF1.0091495759174056
aa(lp1910
F0.47983295783641017
aF1.00049752390945
aa(lp1911
F0.45616084173170823
aF0.9261498230489814
aa(lp1912
F0.35283217543549683
aF0.7866410003188293
aa(lp1913
F0.3675815491270186
aF0.8325823079178536
aa(lp1914
F0.3699680825118277
aF0.848953428413094
aa(lp1915
F0.2917372495173354
aF0.7839702278638686
aa(lp1916
F0.3039536268774638
aF0.8153407249015132
aa(lp1917
F0.35835977460425394
aF0.8481816236303777
aa(lp1918
F0.3639676386093143
aF0.8286001780084667
aa(lp1919
F0.38747420580851494
aF0.8829621924232178
aa(lp1920
F0.4050441401488938
aF0.9439393761063815
aa(lp1921
F0.37330765261139864
aF0.9479629625651586
aa(lp1922
F0.41625831943223923
aF0.972939706757356
aa(lp1923
F0.4132989596124762
aF1.0113185763601382
aa(lp1924
F0.4009226151662974
aF0.9385067734461726
aa(lp1925
F0.39260518067127637
aF0.8564448089919566
aa(lp1926
F0.3309258955852246
aF0.8809397915026428
aa(lp1927
F0.413149700471964
aF0.8784371013838866
aa(lp1928
F0.4715074363973664
aF1.0088481553747444
aa(lp1929
F0.45989207115238306
aF1.08670626788855
aa(lp1930
F0.47633858287767733
aF1.028956037695243
aa(lp1931
F0.5134549729458547
aF1.1461113327047037
aa(lp1932
F0.5246969430284766
aF1.1607418640757428
aa(lp1933
F0.4866546080430635
aF1.1150233637145122
aa(lp1934
F0.4856444357751018
aF1.0444696893769727
aa(lp1935
F0.4740265884382166
aF0.9720579921636978
aa(lp1936
F0.4671883000531257
aF1.055405144004248
aa(lp1937
F0.454038723037862
aF1.0528572859213874
aa(lp1938
F0.4509433186676217
aF0.9646444986860789
aa(lp1939
F0.3712568087241842
aF0.9321499470379423
aa(lp1940
F0.33717080013031653
aF0.8606883723945237
aa(lp1941
F0.3654346413335968
aF0.8855739389630729
aa(lp1942
F0.37551504221101595
aF0.9267975044181231
aa(lp1943
F0.3510706250813456
aF0.8328240932116583
aa(lp1944
F0.3174354348513818
aF0.8012276541220991
aa(lp1945
F0.35573377060826616
aF0.825279681288239
aa(lp1946
F0.3309698382291547
aF0.9329723112645036
aa(lp1947
F0.4464220914723379
aF1.0319034996661045
aa(lp1948
F0.4339668365912051
aF0.9621228350437429
aa(lp1949
F0.4018948619402742
aF0.8659103563579263
aa(lp1950
F0.3939762398740214
aF0.8260647762502528
aa(lp1951
F0.45761067956373
aF0.917897829376433
aa(lp1952
F0.41105776528814764
aF0.9577319196085177
aa(lp1953
F0.3638073921657772
aF0.833041677751132
aa(lp1954
F0.3345756298002511
aF0.7593317942483812
aa(lp1955
F0.23324475306962367
aF0.6294853429975997
aa(lp1956
F0.20097734890887298
aF0.6698967405834415
aa(lp1957
F0.25985107971648586
aF0.7068645967041917
aa(lp1958
F0.33554906447887267
aF0.8181065127338595
aa(lp1959
F0.33538274833612297
aF0.7783892884200216
aa(lp1960
F0.3313845927066544
aF0.8551793786468366
aa(lp1961
F0.3657245597530295
aF0.7524266925598536
aa(lp1962
F0.36741229736114095
aF0.7815690235849654
aa(lp1963
F0.26647980619634704
aF0.710033080298663
aa(lp1964
F0.3407214202708646
aF0.8789116361952809
aa(lp1965
F0.38371139156465633
aF0.8612161275366512
aa(lp1966
F0.3618464015575141
aF0.9123188310171327
aa(lp1967
F0.3369765240024511
aF0.9002586891212233
aa(lp1968
F0.33638448151230377
aF0.8013712652151417
aa(lp1969
F0.2491424756389381
aF0.7204286453978188
aa(lp1970
F0.27578492782303926
aF0.7906562349008207
aa(lp1971
F0.30583765643645644
aF0.7649718475634829
aa(lp1972
F0.3371336846740466
aF0.7210144483578789
aa(lp1973
F0.2509887044198984
aF0.70933600254389
aa(lp1974
F0.24309194167064144
aF0.6598043896672351
aa(lp1975
F0.2282534296762825
aF0.6515980746791368
aa(lp1976
F0.2626520195941321
aF0.7440721664571806
aa(lp1977
F0.21775366462308926
aF0.6944146253906673
aa(lp1978
F0.2815095400082046
aF0.7086256884286618
aa(lp1979
F0.22982071593266698
aF0.7280162141080481
aa(lp1980
F0.35947622685232716
aF0.8550123541064516
aa(lp1981
F0.32180631709508567
aF0.8476351013580584
aa(lp1982
F0.33091299093440285
aF0.8752153922982805
aa(lp1983
F0.3128050149504057
aF0.8521992561973762
aa(lp1984
F0.3870893122879979
aF0.8611251224038753
aa(lp1985
F0.34466559006860414
aF0.8724505586931213
aa(lp1986
F0.3318573123364673
aF0.7752138931221058
aa(lp1987
F0.3147565775635798
aF0.7222120342981514
aa(lp1988
F0.30463401589808237
aF0.734317075596786
aa(lp1989
F0.34503437251967745
aF0.7789526374956097
aa(lp1990
F0.36177892063308215
aF0.9202092345510582
aa(lp1991
F0.3700238031445889
aF0.8526943800770383
aa(lp1992
F0.2976443666686357
aF0.8285408230963649
aa(lp1993
F0.2790260074685635
aF0.7869682935530126
aa(lp1994
F0.28528888836167554
aF0.8044905107821885
aa(lp1995
F0.2602543050264689
aF0.7869274789537117
aa(lp1996
F0.2880157996554176
aF0.7777507409362828
aa(lp1997
F0.27032419771828736
aF0.689069078937668
aa(lp1998
F0.35509718387391037
aF0.7997704329701273
aa(lp1999
F0.28199096055513806
aF0.7766967855459822
aa(lp2000
F0.33297870194158974
aF0.9029865395305908
aa(lp2001
F0.296438029725637
aF0.7243966397753845
aa(lp2002
F0.36161778176254133
aF0.8721162626713509
aa(lp2003
F0.3727835953936976
aF0.9184072997125561
aa(lp2004
F0.39234525387538227
aF0.9135763265831545
aa(lp2005
F0.41648660611891647
aF0.9648396404024547
aa(lp2006
F0.37483217173518
aF0.9932999451381709
aa(lp2007
F0.4319993392489514
aF0.9249929722870281
aa(lp2008
F0.45331078333158015
aF1.029179217272111
aa(lp2009
F0.4006445180944842
aF0.9547104500767163
aa(lp2010
F0.41366000750690013
aF0.9208697939109379
aa(lp2011
F0.39406576329097776
aF0.854086247502494
aa(lp2012
F0.375097386974579
aF0.885075823383633
aa(lp2013
F0.35098163829058227
aF0.8980493803409614
aaa.